(dp0
S'RLAB'
p1
(lp2
ccopy_reg
_reconstructor
p3
(cgeometry_msgs.msg._PoseStamped
PoseStamped
p4
c__builtin__
object
p5
Ntp6
Rp7
(lp8
g3
(cstd_msgs.msg._Header
Header
p9
g5
Ntp10
Rp11
(lp12
I0
ag3
(cgenpy.rostime
Time
p13
g5
Ntp14
Rp15
(lp16
I4859
aI793000000
abaS'/base_link'
p17
abag3
(cgeometry_msgs.msg._Pose
Pose
p18
g5
Ntp19
Rp20
(lp21
g3
(cgeometry_msgs.msg._Point
Point
p22
g5
Ntp23
Rp24
(lp25
F0.3608732962143377
aF-0.05555982006840394
aF0.5720916165585321
abag3
(cgeometry_msgs.msg._Quaternion
Quaternion
p26
g5
Ntp27
Rp28
(lp29
F-0.05707103541645489
aF-0.026534082402433275
aF-0.22724457120075695
aF0.9718018029656761
abababag3
(g4
g5
Ntp30
Rp31
(lp32
g3
(g9
g5
Ntp33
Rp34
(lp35
I0
ag3
(g13
g5
Ntp36
Rp37
(lp38
I4860
aI254000000
abaS'/base_link'
p39
abag3
(g18
g5
Ntp40
Rp41
(lp42
g3
(g22
g5
Ntp43
Rp44
(lp45
F0.3572756353919946
aF-0.058441748428288164
aF0.5872096742383004
abag3
(g26
g5
Ntp46
Rp47
(lp48
F-0.034277185198742496
aF-0.06095755217257355
aF-0.23332387059744303
aF0.9698810353942419
abababag3
(g4
g5
Ntp49
Rp50
(lp51
g3
(g9
g5
Ntp52
Rp53
(lp54
I0
ag3
(g13
g5
Ntp55
Rp56
(lp57
I4860
aI692000000
abaS'/base_link'
p58
abag3
(g18
g5
Ntp59
Rp60
(lp61
g3
(g22
g5
Ntp62
Rp63
(lp64
F0.3555547363317792
aF-0.05889312817950859
aF0.5944582353447072
abag3
(g26
g5
Ntp65
Rp66
(lp67
F0.0023682154086625985
aF-0.09409209221762617
aF-0.23400621554762677
aF0.967668414707727
abababag3
(g4
g5
Ntp68
Rp69
(lp70
g3
(g9
g5
Ntp71
Rp72
(lp73
I0
ag3
(g13
g5
Ntp74
Rp75
(lp76
I4861
aI131000000
abaS'/base_link'
p77
abag3
(g18
g5
Ntp78
Rp79
(lp80
g3
(g22
g5
Ntp81
Rp82
(lp83
F0.35020679839868435
aF-0.0613342942376926
aF0.6130846297764138
abag3
(g26
g5
Ntp84
Rp85
(lp86
F0.017982591512010104
aF-0.12901591678336502
aF-0.2376682887828893
aF0.9625722331991886
abababag3
(g4
g5
Ntp87
Rp88
(lp89
g3
(g9
g5
Ntp90
Rp91
(lp92
I0
ag3
(g13
g5
Ntp93
Rp94
(lp95
I4861
aI592000000
abaS'/base_link'
p96
abag3
(g18
g5
Ntp97
Rp98
(lp99
g3
(g22
g5
Ntp100
Rp101
(lp102
F0.3398666265169269
aF-0.06381617866408548
aF0.6462105595873668
abag3
(g26
g5
Ntp103
Rp104
(lp105
F0.0026936907956960727
aF-0.16429586268459478
aF-0.24215151366116935
aF0.9562229122784218
abababag3
(g4
g5
Ntp106
Rp107
(lp108
g3
(g9
g5
Ntp109
Rp110
(lp111
I0
ag3
(g13
g5
Ntp112
Rp113
(lp114
I4862
aI59000000
abaS'/base_link'
p115
abag3
(g18
g5
Ntp116
Rp117
(lp118
g3
(g22
g5
Ntp119
Rp120
(lp121
F0.33325094004244254
aF-0.06475279342270159
aF0.6627876137086037
abag3
(g26
g5
Ntp122
Rp123
(lp124
F0.02112409855896871
aF-0.19897753559852108
aF-0.2428795882674313
aF0.9491950370657514
abababag3
(g4
g5
Ntp125
Rp126
(lp127
g3
(g9
g5
Ntp128
Rp129
(lp130
I0
ag3
(g13
g5
Ntp131
Rp132
(lp133
I4862
aI452000000
abaS'/base_link'
p134
abag3
(g18
g5
Ntp135
Rp136
(lp137
g3
(g22
g5
Ntp138
Rp139
(lp140
F0.32546036442239545
aF-0.06472667521977005
aF0.681759907968572
abag3
(g26
g5
Ntp141
Rp142
(lp143
F0.03359684895052275
aF-0.2338424877580389
aF-0.24095126283209287
aF0.9413455431452081
abababag3
(g4
g5
Ntp144
Rp145
(lp146
g3
(g9
g5
Ntp147
Rp148
(lp149
I0
ag3
(g13
g5
Ntp150
Rp151
(lp152
I4862
aI826000000
abaS'/base_link'
p153
abag3
(g18
g5
Ntp154
Rp155
(lp156
g3
(g22
g5
Ntp157
Rp158
(lp159
F0.31569640649751834
aF-0.06452440060092099
aF0.7030666970889875
abag3
(g26
g5
Ntp160
Rp161
(lp162
F0.03908739832937194
aF-0.26773463187599394
aF-0.23970164912628242
aF0.9323805347561733
abababag3
(g4
g5
Ntp163
Rp164
(lp165
g3
(g9
g5
Ntp166
Rp167
(lp168
I0
ag3
(g13
g5
Ntp169
Rp170
(lp171
I4863
aI281000000
abaS'/base_link'
p172
abag3
(g18
g5
Ntp173
Rp174
(lp175
g3
(g22
g5
Ntp176
Rp177
(lp178
F0.30426587132783744
aF-0.06270961112378977
aF0.726403592961532
abag3
(g26
g5
Ntp179
Rp180
(lp181
F0.041798288855593835
aF-0.30273623344851364
aF-0.23669309759026613
aF0.9222689702897285
abababag3
(g4
g5
Ntp182
Rp183
(lp184
g3
(g9
g5
Ntp185
Rp186
(lp187
I0
ag3
(g13
g5
Ntp188
Rp189
(lp190
I4863
aI722000000
abaS'/base_link'
p191
abag3
(g18
g5
Ntp192
Rp193
(lp194
g3
(g22
g5
Ntp195
Rp196
(lp197
F0.2912608364816133
aF-0.05888119957078518
aF0.7510186727459243
abag3
(g26
g5
Ntp198
Rp199
(lp200
F0.038593159413602286
aF-0.33667115514793033
aF-0.23252501971547204
aF0.9116442379262614
abababag3
(g4
g5
Ntp201
Rp202
(lp203
g3
(g9
g5
Ntp204
Rp205
(lp206
I0
ag3
(g13
g5
Ntp207
Rp208
(lp209
I4864
aI145000000
abaS'/base_link'
p210
abag3
(g18
g5
Ntp211
Rp212
(lp213
g3
(g22
g5
Ntp214
Rp215
(lp216
F0.2785915493553028
aF-0.05509274006890953
aF0.7726347122028343
abag3
(g26
g5
Ntp217
Rp218
(lp219
F0.04108898964717477
aF-0.3703419403795609
aF-0.22668690449231768
aF0.8998730963071221
abababag3
(g4
g5
Ntp220
Rp221
(lp222
g3
(g9
g5
Ntp223
Rp224
(lp225
I0
ag3
(g13
g5
Ntp226
Rp227
(lp228
I4864
aI545000000
abaS'/base_link'
p229
abag3
(g18
g5
Ntp230
Rp231
(lp232
g3
(g22
g5
Ntp233
Rp234
(lp235
F0.29092097202719114
aF-0.05861732508059317
aF0.7515890079373211
abag3
(g26
g5
Ntp236
Rp237
(lp238
F0.038372236925845786
aF-0.3369661733083928
aF-0.23272527700788254
aF0.9114934530323349
abababag3
(g4
g5
Ntp239
Rp240
(lp241
g3
(g9
g5
Ntp242
Rp243
(lp244
I0
ag3
(g13
g5
Ntp245
Rp246
(lp247
I4864
aI983000000
abaS'/base_link'
p248
abag3
(g18
g5
Ntp249
Rp250
(lp251
g3
(g22
g5
Ntp252
Rp253
(lp254
F0.30180961418850527
aF-0.06142134150831252
aF0.7321590265349168
abag3
(g26
g5
Ntp255
Rp256
(lp257
F0.032369702227196206
aF-0.30463681632946893
aF-0.23819323904819195
aF0.9216358247084901
abababag3
(g4
g5
Ntp258
Rp259
(lp260
g3
(g9
g5
Ntp261
Rp262
(lp263
I0
ag3
(g13
g5
Ntp264
Rp265
(lp266
I4865
aI401000000
abaS'/base_link'
p267
abag3
(g18
g5
Ntp268
Rp269
(lp270
g3
(g22
g5
Ntp271
Rp272
(lp273
F0.31300463641481446
aF-0.0635758018810176
aF0.7099610881499272
abag3
(g26
g5
Ntp274
Rp275
(lp276
F0.027394057086734005
aF-0.2695863590441911
aF-0.24125804508158408
aF0.9318622839975002
abababag3
(g4
g5
Ntp277
Rp278
(lp279
g3
(g9
g5
Ntp280
Rp281
(lp282
I0
ag3
(g13
g5
Ntp283
Rp284
(lp285
I4865
aI836000000
abaS'/base_link'
p286
abag3
(g18
g5
Ntp287
Rp288
(lp289
g3
(g22
g5
Ntp290
Rp291
(lp292
F0.3240475446975692
aF-0.06463742461256018
aF0.6861416821693224
abag3
(g26
g5
Ntp293
Rp294
(lp295
F0.026342213565702988
aF-0.23481664261881374
aF-0.24246203099744632
aF0.9409460110220355
abababag3
(g4
g5
Ntp296
Rp297
(lp298
g3
(g9
g5
Ntp299
Rp300
(lp301
I0
ag3
(g13
g5
Ntp302
Rp303
(lp304
I4866
aI265000000
abaS'/base_link'
p305
abag3
(g18
g5
Ntp306
Rp307
(lp308
g3
(g22
g5
Ntp309
Rp310
(lp311
F0.333471299087638
aF-0.06503115901427875
aF0.6614590563111821
abag3
(g26
g5
Ntp312
Rp313
(lp314
F0.024637941924804924
aF-0.19932122549970346
aF-0.24308651090153705
aF0.9489852312342502
abababag3
(g4
g5
Ntp315
Rp316
(lp317
g3
(g9
g5
Ntp318
Rp319
(lp320
I0
ag3
(g13
g5
Ntp321
Rp322
(lp323
I4866
aI711000000
abaS'/base_link'
p324
abag3
(g18
g5
Ntp325
Rp326
(lp327
g3
(g22
g5
Ntp328
Rp329
(lp330
F0.34281075050367094
aF-0.06382905131344213
aF0.6362396451683754
abag3
(g26
g5
Ntp331
Rp332
(lp333
F0.021580987849292545
aF-0.16278745735480812
aF-0.24131673212897511
aF0.9564521626751636
abababag3
(g4
g5
Ntp334
Rp335
(lp336
g3
(g9
g5
Ntp337
Rp338
(lp339
I0
ag3
(g13
g5
Ntp340
Rp341
(lp342
I4867
aI177000000
abaS'/base_link'
p343
abag3
(g18
g5
Ntp344
Rp345
(lp346
g3
(g22
g5
Ntp347
Rp348
(lp349
F0.35117084547140826
aF-0.061394410589444365
aF0.6102294521161361
abag3
(g26
g5
Ntp350
Rp351
(lp352
F0.019804627035360525
aF-0.126411604143375
aF-0.2369788356882055
aF0.963051875301508
abababag3
(g4
g5
Ntp353
Rp354
(lp355
g3
(g9
g5
Ntp356
Rp357
(lp358
I0
ag3
(g13
g5
Ntp359
Rp360
(lp361
I4867
aI585000000
abaS'/base_link'
p362
abag3
(g18
g5
Ntp363
Rp364
(lp365
g3
(g22
g5
Ntp366
Rp367
(lp368
F0.3578397762991971
aF-0.05766887710948358
aF0.5855796636693484
abag3
(g26
g5
Ntp369
Rp370
(lp371
F0.017503284715984894
aF-0.09163912949303828
aF-0.23212974769862987
aF0.9682002299128418
abababag3
(g4
g5
Ntp372
Rp373
(lp374
g3
(g9
g5
Ntp375
Rp376
(lp377
I0
ag3
(g13
g5
Ntp378
Rp379
(lp380
I4868
aI54000000
abaS'/base_link'
p381
abag3
(g18
g5
Ntp382
Rp383
(lp384
g3
(g22
g5
Ntp385
Rp386
(lp387
F0.3636426394605364
aF-0.053090274077262474
aF0.5607040473967868
abag3
(g26
g5
Ntp388
Rp389
(lp390
F0.01384128343309311
aF-0.056126703581115635
aF-0.2257787006911283
aF0.9724619223045539
abababag3
(g4
g5
Ntp391
Rp392
(lp393
g3
(g9
g5
Ntp394
Rp395
(lp396
I0
ag3
(g13
g5
Ntp397
Rp398
(lp399
I4868
aI563000000
abaS'/base_link'
p400
abag3
(g18
g5
Ntp401
Rp402
(lp403
g3
(g22
g5
Ntp404
Rp405
(lp406
F0.34844093630094475
aF-0.0622692441813464
aF0.6201139326905816
abag3
(g26
g5
Ntp407
Rp408
(lp409
F-0.04994658544557199
aF-0.09481205886763067
aF-0.2412812106373085
aF0.964520289827541
abababag3
(g4
g5
Ntp410
Rp411
(lp412
g3
(g9
g5
Ntp413
Rp414
(lp415
I0
ag3
(g13
g5
Ntp416
Rp417
(lp418
I4868
aI989000000
abaS'/base_link'
p419
abag3
(g18
g5
Ntp420
Rp421
(lp422
g3
(g22
g5
Ntp423
Rp424
(lp425
F0.3349111500456592
aF-0.06309110985500489
aF0.6628429525489673
abag3
(g26
g5
Ntp426
Rp427
(lp428
F-0.08114776955801252
aF-0.1316437627902445
aF-0.2508298966850491
aF0.9555989337285559
abababag3
(g4
g5
Ntp429
Rp430
(lp431
g3
(g9
g5
Ntp432
Rp433
(lp434
I0
ag3
(g13
g5
Ntp435
Rp436
(lp437
I4869
aI533000000
abaS'/base_link'
p438
abag3
(g18
g5
Ntp439
Rp440
(lp441
g3
(g22
g5
Ntp442
Rp443
(lp444
F0.31768674248228557
aF-0.06224972178590879
aF0.7050214316736367
abag3
(g26
g5
Ntp445
Rp446
(lp447
F-0.11395143750025886
aF-0.16775012847748655
aF-0.26333793318435894
aF0.9431479720773414
abababag3
(g4
g5
Ntp448
Rp449
(lp450
g3
(g9
g5
Ntp451
Rp452
(lp453
I0
ag3
(g13
g5
Ntp454
Rp455
(lp456
I4870
aI96000000
abaS'/base_link'
p457
abag3
(g18
g5
Ntp458
Rp459
(lp460
g3
(g22
g5
Ntp461
Rp462
(lp463
F0.2990858597669046
aF-0.056452666830049195
aF0.7454572914790069
abag3
(g26
g5
Ntp464
Rp465
(lp466
F-0.14557128317442486
aF-0.203446521894846
aF-0.2721034766370266
aF0.9291814743342037
abababag3
(g4
g5
Ntp467
Rp468
(lp469
g3
(g9
g5
Ntp470
Rp471
(lp472
I0
ag3
(g13
g5
Ntp473
Rp474
(lp475
I4870
aI539000000
abaS'/base_link'
p476
abag3
(g18
g5
Ntp477
Rp478
(lp479
g3
(g22
g5
Ntp480
Rp481
(lp482
F0.29468706834641145
aF-0.05454614067633718
aF0.7540695081162004
abag3
(g26
g5
Ntp483
Rp484
(lp485
F-0.1123950741380373
aF-0.2393746067367554
aF-0.2652752214194235
aF0.9271980381018958
abababag3
(g4
g5
Ntp486
Rp487
(lp488
g3
(g9
g5
Ntp489
Rp490
(lp491
I0
ag3
(g13
g5
Ntp492
Rp493
(lp494
I4870
aI990000000
abaS'/base_link'
p495
abag3
(g18
g5
Ntp496
Rp497
(lp498
g3
(g22
g5
Ntp499
Rp500
(lp501
F0.2908074744348321
aF-0.054213689085304745
aF0.759849666417637
abag3
(g26
g5
Ntp502
Rp503
(lp504
F-0.07427171098107303
aF-0.27435572197319513
aF-0.25667411113159955
aF0.9237591955933723
abababag3
(g4
g5
Ntp505
Rp506
(lp507
g3
(g9
g5
Ntp508
Rp509
(lp510
I0
ag3
(g13
g5
Ntp511
Rp512
(lp513
I4871
aI440000000
abaS'/base_link'
p514
abag3
(g18
g5
Ntp515
Rp516
(lp517
g3
(g22
g5
Ntp518
Rp519
(lp520
F0.32482222693159063
aF-0.06507185946878587
aF0.6837700376285714
abag3
(g26
g5
Ntp521
Rp522
(lp523
F0.03092886383616552
aF-0.23476602468886199
aF-0.2414629467196938
aF0.9410759610121995
abababag3
(g4
g5
Ntp524
Rp525
(lp526
g3
(g9
g5
Ntp527
Rp528
(lp529
I0
ag3
(g13
g5
Ntp530
Rp531
(lp532
I4871
aI846000000
abaS'/base_link'
p533
abag3
(g18
g5
Ntp534
Rp535
(lp536
g3
(g22
g5
Ntp537
Rp538
(lp539
F0.3397554530563415
aF-0.06509703037437746
aF0.6424732288679704
abag3
(g26
g5
Ntp540
Rp541
(lp542
F0.0626092699843352
aF-0.19794568610393173
aF-0.23865343603850125
aF0.9486527932451837
abababag3
(g4
g5
Ntp543
Rp544
(lp545
g3
(g9
g5
Ntp546
Rp547
(lp548
I0
ag3
(g13
g5
Ntp549
Rp550
(lp551
I4872
aI279000000
abaS'/base_link'
p552
abag3
(g18
g5
Ntp553
Rp554
(lp555
g3
(g22
g5
Ntp556
Rp557
(lp558
F0.3530012373798574
aF-0.06073131214794403
aF0.5988360675949929
abag3
(g26
g5
Ntp559
Rp560
(lp561
F0.09668358271334838
aF-0.15972894302641977
aF-0.2336725814625015
aF0.9542201393106438
abababasS'RLAD'
p562
(lp563
g3
(g4
g5
Ntp564
Rp565
(lp566
g3
(g9
g5
Ntp567
Rp568
(lp569
I0
ag3
(g13
g5
Ntp570
Rp571
(lp572
I6421
aI183000000
abaS'/base_link'
p573
abag3
(g18
g5
Ntp574
Rp575
(lp576
g3
(g22
g5
Ntp577
Rp578
(lp579
F0.6341711269662327
aF-0.21608505591502042
aF0.47877087014618486
abag3
(g26
g5
Ntp580
Rp581
(lp582
F-0.0039604742893410315
aF-0.14450812325922513
aF-0.07740784690535131
aF0.9864632492865498
abababag3
(g4
g5
Ntp583
Rp584
(lp585
g3
(g9
g5
Ntp586
Rp587
(lp588
I0
ag3
(g13
g5
Ntp589
Rp590
(lp591
I6421
aI534000000
abaS'/base_link'
p592
abag3
(g18
g5
Ntp593
Rp594
(lp595
g3
(g22
g5
Ntp596
Rp597
(lp598
F0.6540300937977395
aF-0.15177474006619365
aF0.4794169429657625
abag3
(g26
g5
Ntp599
Rp600
(lp601
F0.0037134992814418966
aF-0.1450503573039753
aF-0.02410912997630271
aF0.9891235279887248
abababag3
(g4
g5
Ntp602
Rp603
(lp604
g3
(g9
g5
Ntp605
Rp606
(lp607
I0
ag3
(g13
g5
Ntp608
Rp609
(lp610
I6421
aI855000000
abaS'/base_link'
p611
abag3
(g18
g5
Ntp612
Rp613
(lp614
g3
(g22
g5
Ntp615
Rp616
(lp617
F0.6900264631259162
aF-0.044818319348091495
aF0.5055288620359968
abag3
(g26
g5
Ntp618
Rp619
(lp620
F0.024737885555826816
aF-0.1705597206239675
aF0.0509039632729468
aF0.9837205930761069
abababag3
(g4
g5
Ntp621
Rp622
(lp623
g3
(g9
g5
Ntp624
Rp625
(lp626
I0
ag3
(g13
g5
Ntp627
Rp628
(lp629
I6422
aI97000000
abaS'/base_link'
p630
abag3
(g18
g5
Ntp631
Rp632
(lp633
g3
(g22
g5
Ntp634
Rp635
(lp636
F0.7085130130372026
aF0.08329407564944248
aF0.5384352114319868
abag3
(g26
g5
Ntp637
Rp638
(lp639
F0.052984631978226907
aF-0.1979434762752885
aF0.13499981506888994
aF0.9694256335096321
abababasS'RLMR'
p640
(lp641
g3
(g4
g5
Ntp642
Rp643
(lp644
g3
(g9
g5
Ntp645
Rp646
(lp647
I0
ag3
(g13
g5
Ntp648
Rp649
(lp650
I5656
aI688000000
abaS'/base_link'
p651
abag3
(g18
g5
Ntp652
Rp653
(lp654
g3
(g22
g5
Ntp655
Rp656
(lp657
F0.6466200274344333
aF-0.21372490810606432
aF0.4932942798866114
abag3
(g26
g5
Ntp658
Rp659
(lp660
F-9.925274291166461e-06
aF-0.1597130787941205
aF-0.07631645265696131
aF0.98420908927801
abababag3
(g4
g5
Ntp661
Rp662
(lp663
g3
(g9
g5
Ntp664
Rp665
(lp666
I0
ag3
(g13
g5
Ntp667
Rp668
(lp669
I5657
aI231000000
abaS'/base_link'
p670
abag3
(g18
g5
Ntp671
Rp672
(lp673
g3
(g22
g5
Ntp674
Rp675
(lp676
F0.6435425426253104
aF-0.21358179218585124
aF0.5030954189707745
abag3
(g26
g5
Ntp677
Rp678
(lp679
F0.009460459938045939
aF-0.19642731961036589
aF-0.07425430779387764
aF0.9776569467776005
abababag3
(g4
g5
Ntp680
Rp681
(lp682
g3
(g9
g5
Ntp683
Rp684
(lp685
I0
ag3
(g13
g5
Ntp686
Rp687
(lp688
I5657
aI688000000
abaS'/base_link'
p689
abag3
(g18
g5
Ntp690
Rp691
(lp692
g3
(g22
g5
Ntp693
Rp694
(lp695
F0.639043737197552
aF-0.21927633390046347
aF0.5117743013046078
abag3
(g26
g5
Ntp696
Rp697
(lp698
F0.027580595505045935
aF-0.23109754333302526
aF-0.09217606729528866
aF0.9681615613289974
abababag3
(g4
g5
Ntp699
Rp700
(lp701
g3
(g9
g5
Ntp702
Rp703
(lp704
I0
ag3
(g13
g5
Ntp705
Rp706
(lp707
I5658
aI129000000
abaS'/base_link'
p708
abag3
(g18
g5
Ntp709
Rp710
(lp711
g3
(g22
g5
Ntp712
Rp713
(lp714
F0.633006413725903
aF-0.22453464126826692
aF0.5189164424033428
abag3
(g26
g5
Ntp715
Rp716
(lp717
F0.04268188088087866
aF-0.2644388244761222
aF-0.10692606147672776
aF0.9575057088765748
abababag3
(g4
g5
Ntp718
Rp719
(lp720
g3
(g9
g5
Ntp721
Rp722
(lp723
I0
ag3
(g13
g5
Ntp724
Rp725
(lp726
I5658
aI664000000
abaS'/base_link'
p727
abag3
(g18
g5
Ntp728
Rp729
(lp730
g3
(g22
g5
Ntp731
Rp732
(lp733
F0.6269731444887017
aF-0.22793478020020164
aF0.5278143017661054
abag3
(g26
g5
Ntp734
Rp735
(lp736
F0.05575145948408013
aF-0.3028285238863013
aF-0.11718640965107485
aF0.9441684199756573
abababag3
(g4
g5
Ntp737
Rp738
(lp739
g3
(g9
g5
Ntp740
Rp741
(lp742
I0
ag3
(g13
g5
Ntp743
Rp744
(lp745
I5659
aI51000000
abaS'/base_link'
p746
abag3
(g18
g5
Ntp747
Rp748
(lp749
g3
(g22
g5
Ntp750
Rp751
(lp752
F0.62058463654439
aF-0.2292280020357333
aF0.5352804490105892
abag3
(g26
g5
Ntp753
Rp754
(lp755
F0.061698089072931915
aF-0.33710947165391164
aF-0.11946150259016813
aF0.9318151637126691
abababag3
(g4
g5
Ntp756
Rp757
(lp758
g3
(g9
g5
Ntp759
Rp760
(lp761
I0
ag3
(g13
g5
Ntp762
Rp763
(lp764
I5659
aI605000000
abaS'/base_link'
p765
abag3
(g18
g5
Ntp766
Rp767
(lp768
g3
(g22
g5
Ntp769
Rp770
(lp771
F0.614427333791857
aF-0.22731269980347762
aF0.5437533827558099
abag3
(g26
g5
Ntp772
Rp773
(lp774
F0.059365030527644407
aF-0.3725313776651557
aF-0.1113188255557747
aF0.9194043098018607
abababag3
(g4
g5
Ntp775
Rp776
(lp777
g3
(g9
g5
Ntp778
Rp779
(lp780
I0
ag3
(g13
g5
Ntp781
Rp782
(lp783
I5660
aI54000000
abaS'/base_link'
p784
abag3
(g18
g5
Ntp785
Rp786
(lp787
g3
(g22
g5
Ntp788
Rp789
(lp790
F0.607930925148544
aF-0.222418647917059
aF0.5508388440317624
abag3
(g26
g5
Ntp791
Rp792
(lp793
F0.05074232117490811
aF-0.4054944396899088
aF-0.09533046140205385
aF0.9076957526347806
abababag3
(g4
g5
Ntp794
Rp795
(lp796
g3
(g9
g5
Ntp797
Rp798
(lp799
I0
ag3
(g13
g5
Ntp800
Rp801
(lp802
I5660
aI495000000
abaS'/base_link'
p803
abag3
(g18
g5
Ntp804
Rp805
(lp806
g3
(g22
g5
Ntp807
Rp808
(lp809
F0.6008047839576427
aF-0.21757439176848753
aF0.558204674835362
abag3
(g26
g5
Ntp810
Rp811
(lp812
F0.04097986188372071
aF-0.4391309828385149
aF-0.07910992822511619
aF0.8939945470121661
abababag3
(g4
g5
Ntp813
Rp814
(lp815
g3
(g9
g5
Ntp816
Rp817
(lp818
I0
ag3
(g13
g5
Ntp819
Rp820
(lp821
I5660
aI906000000
abaS'/base_link'
p822
abag3
(g18
g5
Ntp823
Rp824
(lp825
g3
(g22
g5
Ntp826
Rp827
(lp828
F0.593024984225186
aF-0.21391551701288808
aF0.563925710927337
abag3
(g26
g5
Ntp829
Rp830
(lp831
F0.03379134545462909
aF-0.47113511659193075
aF-0.06934080273665613
aF0.8786817967626904
abababag3
(g4
g5
Ntp832
Rp833
(lp834
g3
(g9
g5
Ntp835
Rp836
(lp837
I0
ag3
(g13
g5
Ntp838
Rp839
(lp840
I5661
aI352000000
abaS'/base_link'
p841
abag3
(g18
g5
Ntp842
Rp843
(lp844
g3
(g22
g5
Ntp845
Rp846
(lp847
F0.584525098071096
aF-0.21066259440356636
aF0.5698536251599181
abag3
(g26
g5
Ntp848
Rp849
(lp850
F0.024765854427372013
aF-0.5035784570179338
aF-0.05971179418180587
aF0.8615276500017333
abababag3
(g4
g5
Ntp851
Rp852
(lp853
g3
(g9
g5
Ntp854
Rp855
(lp856
I0
ag3
(g13
g5
Ntp857
Rp858
(lp859
I5661
aI778000000
abaS'/base_link'
p860
abag3
(g18
g5
Ntp861
Rp862
(lp863
g3
(g22
g5
Ntp864
Rp865
(lp866
F0.5759106962981098
aF-0.20780376527404482
aF0.5757265680821287
abag3
(g26
g5
Ntp867
Rp868
(lp869
F0.012750362521402506
aF-0.5320955527790799
aF-0.05062765886831544
aF0.8450731276793811
abababag3
(g4
g5
Ntp870
Rp871
(lp872
g3
(g9
g5
Ntp873
Rp874
(lp875
I0
ag3
(g13
g5
Ntp876
Rp877
(lp878
I5662
aI224000000
abaS'/base_link'
p879
abag3
(g18
g5
Ntp880
Rp881
(lp882
g3
(g22
g5
Ntp883
Rp884
(lp885
F0.5648098938866983
aF-0.2102932542459475
aF0.5876675015225408
abag3
(g26
g5
Ntp886
Rp887
(lp888
F-0.013902019370441493
aF-0.5529416895233468
aF-0.044398530373081634
aF0.8319200636751113
abababag3
(g4
g5
Ntp889
Rp890
(lp891
g3
(g9
g5
Ntp892
Rp893
(lp894
I0
ag3
(g13
g5
Ntp895
Rp896
(lp897
I5662
aI657000000
abaS'/base_link'
p898
abag3
(g18
g5
Ntp899
Rp900
(lp901
g3
(g22
g5
Ntp902
Rp903
(lp904
F0.5517224142959429
aF-0.21662643366247164
aF0.6045852246532095
abag3
(g26
g5
Ntp905
Rp906
(lp907
F-0.04865699539255931
aF-0.5698993761816913
aF-0.04343705349137332
aF0.8191217371130345
abababag3
(g4
g5
Ntp908
Rp909
(lp910
g3
(g9
g5
Ntp911
Rp912
(lp913
I0
ag3
(g13
g5
Ntp914
Rp915
(lp916
I5663
aI199000000
abaS'/base_link'
p917
abag3
(g18
g5
Ntp918
Rp919
(lp920
g3
(g22
g5
Ntp921
Rp922
(lp923
F0.5506279434132645
aF-0.2007047829992911
aF0.616001718719101
abag3
(g26
g5
Ntp924
Rp925
(lp926
F-0.0649203529912665
aF-0.5788221276661442
aF-0.024685410725114747
aF0.812490567815319
abababag3
(g4
g5
Ntp927
Rp928
(lp929
g3
(g9
g5
Ntp930
Rp931
(lp932
I0
ag3
(g13
g5
Ntp933
Rp934
(lp935
I5663
aI638000000
abaS'/base_link'
p936
abag3
(g18
g5
Ntp937
Rp938
(lp939
g3
(g22
g5
Ntp940
Rp941
(lp942
F0.5698423519417511
aF-0.18312113243244443
aF0.6116168256442864
abag3
(g26
g5
Ntp943
Rp944
(lp945
F-0.05274011698428032
aF-0.5398286725720365
aF-0.0044831128554608515
aF0.8401091512587651
abababag3
(g4
g5
Ntp946
Rp947
(lp948
g3
(g9
g5
Ntp949
Rp950
(lp951
I0
ag3
(g13
g5
Ntp952
Rp953
(lp954
I5664
aI70000000
abaS'/base_link'
p955
abag3
(g18
g5
Ntp956
Rp957
(lp958
g3
(g22
g5
Ntp959
Rp960
(lp961
F0.5786268169608507
aF-0.18282037555405356
aF0.6065779521696772
abag3
(g26
g5
Ntp962
Rp963
(lp964
F-0.05198329551075595
aF-0.5086685895188541
aF-0.0003078200250101192
aF0.859391591925109
abababag3
(g4
g5
Ntp965
Rp966
(lp967
g3
(g9
g5
Ntp968
Rp969
(lp970
I0
ag3
(g13
g5
Ntp971
Rp972
(lp973
I5664
aI465000000
abaS'/base_link'
p974
abag3
(g18
g5
Ntp975
Rp976
(lp977
g3
(g22
g5
Ntp978
Rp979
(lp980
F0.5869321636031003
aF-0.18614142640764908
aF0.6019999866424194
abag3
(g26
g5
Ntp981
Rp982
(lp983
F-0.04661585673076288
aF-0.4775953777489533
aF-0.008668506392347994
aF0.8772995349656908
abababag3
(g4
g5
Ntp984
Rp985
(lp986
g3
(g9
g5
Ntp987
Rp988
(lp989
I0
ag3
(g13
g5
Ntp990
Rp991
(lp992
I5664
aI877000000
abaS'/base_link'
p993
abag3
(g18
g5
Ntp994
Rp995
(lp996
g3
(g22
g5
Ntp997
Rp998
(lp999
F0.594926008518479
aF-0.1885136117192453
aF0.5966298019497637
abag3
(g26
g5
Ntp1000
Rp1001
(lp1002
F-0.04375305422751156
aF-0.44723778531293706
aF-0.015842117972882954
aF0.8932038182477037
abababag3
(g4
g5
Ntp1003
Rp1004
(lp1005
g3
(g9
g5
Ntp1006
Rp1007
(lp1008
I0
ag3
(g13
g5
Ntp1009
Rp1010
(lp1011
I5665
aI322000000
abaS'/base_link'
p1012
abag3
(g18
g5
Ntp1013
Rp1014
(lp1015
g3
(g22
g5
Ntp1016
Rp1017
(lp1018
F0.6026303013586419
aF-0.1902003192763221
aF0.589615220400157
abag3
(g26
g5
Ntp1019
Rp1020
(lp1021
F-0.04177316853628337
aF-0.41368384990722473
aF-0.020146244481929865
aF0.9092385845033472
abababag3
(g4
g5
Ntp1022
Rp1023
(lp1024
g3
(g9
g5
Ntp1025
Rp1026
(lp1027
I0
ag3
(g13
g5
Ntp1028
Rp1029
(lp1030
I5665
aI876000000
abaS'/base_link'
p1031
abag3
(g18
g5
Ntp1032
Rp1033
(lp1034
g3
(g22
g5
Ntp1035
Rp1036
(lp1037
F0.6101161019297939
aF-0.19135385929113455
aF0.583231156460563
abag3
(g26
g5
Ntp1038
Rp1039
(lp1040
F-0.042933323343610365
aF-0.3807961723050047
aF-0.02345935015585575
aF0.9233637765229883
abababag3
(g4
g5
Ntp1041
Rp1042
(lp1043
g3
(g9
g5
Ntp1044
Rp1045
(lp1046
I0
ag3
(g13
g5
Ntp1047
Rp1048
(lp1049
I5666
aI336000000
abaS'/base_link'
p1050
abag3
(g18
g5
Ntp1051
Rp1052
(lp1053
g3
(g22
g5
Ntp1054
Rp1055
(lp1056
F0.6167953617635564
aF-0.19197590674682458
aF0.5757495392778237
abag3
(g26
g5
Ntp1057
Rp1058
(lp1059
F-0.04733332776585645
aF-0.34621899313226195
aF-0.024842404476457244
aF0.9366294997579997
abababag3
(g4
g5
Ntp1060
Rp1061
(lp1062
g3
(g9
g5
Ntp1063
Rp1064
(lp1065
I0
ag3
(g13
g5
Ntp1066
Rp1067
(lp1068
I5666
aI777000000
abaS'/base_link'
p1069
abag3
(g18
g5
Ntp1070
Rp1071
(lp1072
g3
(g22
g5
Ntp1073
Rp1074
(lp1075
F0.6229588376738906
aF-0.19219088907159415
aF0.5678757400842225
abag3
(g26
g5
Ntp1076
Rp1077
(lp1078
F-0.05276763170603313
aF-0.31191113067214743
aF-0.02533508221531366
aF0.9483064679817924
abababag3
(g4
g5
Ntp1079
Rp1080
(lp1081
g3
(g9
g5
Ntp1082
Rp1083
(lp1084
I0
ag3
(g13
g5
Ntp1085
Rp1086
(lp1087
I5667
aI174000000
abaS'/base_link'
p1088
abag3
(g18
g5
Ntp1089
Rp1090
(lp1091
g3
(g22
g5
Ntp1092
Rp1093
(lp1094
F0.6287755016539445
aF-0.19230714615300304
aF0.5595753031388535
abag3
(g26
g5
Ntp1095
Rp1096
(lp1097
F-0.05956247276966103
aF-0.2770202254293119
aF-0.025224424553370373
aF0.9586844292814023
abababag3
(g4
g5
Ntp1098
Rp1099
(lp1100
g3
(g9
g5
Ntp1101
Rp1102
(lp1103
I0
ag3
(g13
g5
Ntp1104
Rp1105
(lp1106
I5667
aI593000000
abaS'/base_link'
p1107
abag3
(g18
g5
Ntp1108
Rp1109
(lp1110
g3
(g22
g5
Ntp1111
Rp1112
(lp1113
F0.6339505777234711
aF-0.19169226123094943
aF0.5505890253167226
abag3
(g26
g5
Ntp1114
Rp1115
(lp1116
F-0.0693451331838784
aF-0.24119533443302604
aF-0.023236192914444218
aF0.9677169743733411
abababag3
(g4
g5
Ntp1117
Rp1118
(lp1119
g3
(g9
g5
Ntp1120
Rp1121
(lp1122
I0
ag3
(g13
g5
Ntp1123
Rp1124
(lp1125
I5668
aI87000000
abaS'/base_link'
p1126
abag3
(g18
g5
Ntp1127
Rp1128
(lp1129
g3
(g22
g5
Ntp1130
Rp1131
(lp1132
F0.6386871255351476
aF-0.18988690285393892
aF0.541740590619539
abag3
(g26
g5
Ntp1133
Rp1134
(lp1135
F-0.08119661268940914
aF-0.205980763730654
aF-0.018277034353232465
aF0.9750102487030345
abababag3
(g4
g5
Ntp1136
Rp1137
(lp1138
g3
(g9
g5
Ntp1139
Rp1140
(lp1141
I0
ag3
(g13
g5
Ntp1142
Rp1143
(lp1144
I5668
aI560000000
abaS'/base_link'
p1145
abag3
(g18
g5
Ntp1146
Rp1147
(lp1148
g3
(g22
g5
Ntp1149
Rp1150
(lp1151
F0.6419394988476224
aF-0.18984486374433593
aF0.5321065996799841
abag3
(g26
g5
Ntp1152
Rp1153
(lp1154
F-0.09314966098447013
aF-0.1706200515255439
aF-0.015164758478421327
aF0.980806794825663
abababag3
(g4
g5
Ntp1155
Rp1156
(lp1157
g3
(g9
g5
Ntp1158
Rp1159
(lp1160
I0
ag3
(g13
g5
Ntp1161
Rp1162
(lp1163
I5668
aI996000000
abaS'/base_link'
p1164
abag3
(g18
g5
Ntp1165
Rp1166
(lp1167
g3
(g22
g5
Ntp1168
Rp1169
(lp1170
F0.6447115897410842
aF-0.19503549879315574
aF0.5240520575543933
abag3
(g26
g5
Ntp1171
Rp1172
(lp1173
F-0.09731430977808635
aF-0.13793060990965286
aF-0.031021082778913623
aF0.985161288513505
abababas.