(dp0
S'RAEE'
p1
(lp2
ccopy_reg
_reconstructor
p3
(cgeometry_msgs.msg._PoseStamped
PoseStamped
p4
c__builtin__
object
p5
Ntp6
Rp7
(lp8
g3
(cstd_msgs.msg._Header
Header
p9
g5
Ntp10
Rp11
(lp12
I0
ag3
(cgenpy.rostime
Time
p13
g5
Ntp14
Rp15
(lp16
I1565741613
aI104212341
abaS'/base_link'
p17
abag3
(cgeometry_msgs.msg._Pose
Pose
p18
g5
Ntp19
Rp20
(lp21
g3
(cgeometry_msgs.msg._Point
Point
p22
g5
Ntp23
Rp24
(lp25
F0.4500501358107674
aF-0.31536112966149554
aF0.4269489495526281
abag3
(cgeometry_msgs.msg._Quaternion
Quaternion
p26
g5
Ntp27
Rp28
(lp29
F-0.12993156937098876
aF-0.03478516133845182
aF0.7123103708695211
aF0.6888553660843292
abababag3
(g4
g5
Ntp30
Rp31
(lp32
g3
(g9
g5
Ntp33
Rp34
(lp35
I0
ag3
(g13
g5
Ntp36
Rp37
(lp38
I1565741635
aI787725991
abaS'/base_link'
p39
abag3
(g18
g5
Ntp40
Rp41
(lp42
g3
(g22
g5
Ntp43
Rp44
(lp45
F0.2943395927414714
aF-0.29548135159922995
aF0.478299201862253
abag3
(g26
g5
Ntp46
Rp47
(lp48
F0.10033234665264597
aF-0.014683606533570828
aF0.6499418754909823
aF0.7531888012959335
abababag3
(g4
g5
Ntp49
Rp50
(lp51
g3
(g9
g5
Ntp52
Rp53
(lp54
I0
ag3
(g13
g5
Ntp55
Rp56
(lp57
I1565741646
aI186224006
abaS'/base_link'
p58
abag3
(g18
g5
Ntp59
Rp60
(lp61
g3
(g22
g5
Ntp62
Rp63
(lp64
F0.4344436612958764
aF-0.3184100916202758
aF0.48607588701161886
abag3
(g26
g5
Ntp65
Rp66
(lp67
F-0.07984860754025105
aF-0.07020863199080066
aF0.6960847994335296
aF0.7100428859339738
abababasS'RAEF'
p68
(lp69
g3
(g4
g5
Ntp70
Rp71
(lp72
g3
(g9
g5
Ntp73
Rp74
(lp75
I0
ag3
(g13
g5
Ntp76
Rp77
(lp78
I58
aI192000000
abaS'/base_link'
p79
abag3
(g18
g5
Ntp80
Rp81
(lp82
g3
(g22
g5
Ntp83
Rp84
(lp85
F0.45931731793732583
aF-0.292241909922592
aF0.4210378549447076
abag3
(g26
g5
Ntp86
Rp87
(lp88
F-0.07663985464628198
aF-0.03533691075249955
aF0.6927906555799598
aF0.7161834562172991
abababag3
(g4
g5
Ntp89
Rp90
(lp91
g3
(g9
g5
Ntp92
Rp93
(lp94
I0
ag3
(g13
g5
Ntp95
Rp96
(lp97
I59
aI557000000
abaS'/base_link'
p98
abag3
(g18
g5
Ntp99
Rp100
(lp101
g3
(g22
g5
Ntp102
Rp103
(lp104
F0.46004717370901466
aF-0.2997168450926564
aF0.44018722416024775
abag3
(g26
g5
Ntp105
Rp106
(lp107
F-0.09825804302204745
aF0.0006477981526990407
aF0.6697387841985953
aF0.7360671832646923
abababag3
(g4
g5
Ntp108
Rp109
(lp110
g3
(g9
g5
Ntp111
Rp112
(lp113
I0
ag3
(g13
g5
Ntp114
Rp115
(lp116
I59
aI613000000
abaS'/base_link'
p117
abag3
(g18
g5
Ntp118
Rp119
(lp120
g3
(g22
g5
Ntp121
Rp122
(lp123
F0.4637830887853874
aF-0.2750998264368684
aF0.4737598501347755
abag3
(g26
g5
Ntp124
Rp125
(lp126
F-0.08389559241854892
aF0.06786240138049833
aF0.7411222649109653
aF0.6626416923985796
abababag3
(g4
g5
Ntp127
Rp128
(lp129
g3
(g9
g5
Ntp130
Rp131
(lp132
I0
ag3
(g13
g5
Ntp133
Rp134
(lp135
I59
aI625000000
abaS'/base_link'
p136
abag3
(g18
g5
Ntp137
Rp138
(lp139
g3
(g22
g5
Ntp140
Rp141
(lp142
F0.4609561663485227
aF-0.28385230363694774
aF0.4861688638499086
abag3
(g26
g5
Ntp143
Rp144
(lp145
F-0.08842436208765972
aF0.09529594048889287
aF0.757587604901135
aF0.6396568117482135
abababag3
(g4
g5
Ntp146
Rp147
(lp148
g3
(g9
g5
Ntp149
Rp150
(lp151
I0
ag3
(g13
g5
Ntp152
Rp153
(lp154
I59
aI695000000
abaS'/base_link'
p155
abag3
(g18
g5
Ntp156
Rp157
(lp158
g3
(g22
g5
Ntp159
Rp160
(lp161
F0.4783651747656022
aF-0.28298364978076607
aF0.4969930795959059
abag3
(g26
g5
Ntp162
Rp163
(lp164
F-0.12898323288330732
aF0.10516487038687547
aF0.7343458113926055
aF0.6580576760145103
abababag3
(g4
g5
Ntp165
Rp166
(lp167
g3
(g9
g5
Ntp168
Rp169
(lp170
I0
ag3
(g13
g5
Ntp171
Rp172
(lp173
I59
aI758000000
abaS'/base_link'
p174
abag3
(g18
g5
Ntp175
Rp176
(lp177
g3
(g22
g5
Ntp178
Rp179
(lp180
F0.48259398121641894
aF-0.2823465730354677
aF0.4983296950881282
abag3
(g26
g5
Ntp181
Rp182
(lp183
F-0.14006105801472238
aF0.09843528919729923
aF0.7079759572892425
aF0.6851740200626562
abababag3
(g4
g5
Ntp184
Rp185
(lp186
g3
(g9
g5
Ntp187
Rp188
(lp189
I0
ag3
(g13
g5
Ntp190
Rp191
(lp192
I59
aI881000000
abaS'/base_link'
p193
abag3
(g18
g5
Ntp194
Rp195
(lp196
g3
(g22
g5
Ntp197
Rp198
(lp199
F0.46928788301277624
aF-0.2850934284395795
aF0.49157972671512123
abag3
(g26
g5
Ntp200
Rp201
(lp202
F-0.14563467344281367
aF0.13403701669763754
aF0.692647258714477
aF0.6935880586063479
abababag3
(g4
g5
Ntp203
Rp204
(lp205
g3
(g9
g5
Ntp206
Rp207
(lp208
I0
ag3
(g13
g5
Ntp209
Rp210
(lp211
I60
aI21000000
abaS'/base_link'
p212
abag3
(g18
g5
Ntp213
Rp214
(lp215
g3
(g22
g5
Ntp216
Rp217
(lp218
F0.48622830994400185
aF-0.24794966710466224
aF0.49213036724782
abag3
(g26
g5
Ntp219
Rp220
(lp221
F-0.14452455525013286
aF0.1324343698587995
aF0.7162611878446078
aF0.669734052738313
abababag3
(g4
g5
Ntp222
Rp223
(lp224
g3
(g9
g5
Ntp225
Rp226
(lp227
I0
ag3
(g13
g5
Ntp228
Rp229
(lp230
I60
aI218000000
abaS'/base_link'
p231
abag3
(g18
g5
Ntp232
Rp233
(lp234
g3
(g22
g5
Ntp235
Rp236
(lp237
F0.5195637073639591
aF-0.20436654430347365
aF0.5588705614961602
abag3
(g26
g5
Ntp238
Rp239
(lp240
F-0.24842482410497732
aF0.22933233678258425
aF0.7263309046762678
aF0.5984439848360119
abababag3
(g4
g5
Ntp241
Rp242
(lp243
g3
(g9
g5
Ntp244
Rp245
(lp246
I0
ag3
(g13
g5
Ntp247
Rp248
(lp249
I60
aI559000000
abaS'/base_link'
p250
abag3
(g18
g5
Ntp251
Rp252
(lp253
g3
(g22
g5
Ntp254
Rp255
(lp256
F0.5146385746258453
aF-0.07184809997796324
aF0.7028131910744563
abag3
(g26
g5
Ntp257
Rp258
(lp259
F-0.4211153223314521
aF0.3978239383440412
aF0.6859392911452127
aF0.44032407183949973
abababag3
(g4
g5
Ntp260
Rp261
(lp262
g3
(g9
g5
Ntp263
Rp264
(lp265
I0
ag3
(g13
g5
Ntp266
Rp267
(lp268
I60
aI616000000
abaS'/base_link'
p269
abag3
(g18
g5
Ntp270
Rp271
(lp272
g3
(g22
g5
Ntp273
Rp274
(lp275
F0.5185649879523409
aF-0.06346585447693925
aF0.7054071784980537
abag3
(g26
g5
Ntp276
Rp277
(lp278
F-0.4435849517329266
aF0.3792119253942635
aF0.6688313035151184
aF0.4605381565876382
abababag3
(g4
g5
Ntp279
Rp280
(lp281
g3
(g9
g5
Ntp282
Rp283
(lp284
I0
ag3
(g13
g5
Ntp285
Rp286
(lp287
I60
aI962000000
abaS'/base_link'
p288
abag3
(g18
g5
Ntp289
Rp290
(lp291
g3
(g22
g5
Ntp292
Rp293
(lp294
F0.507743084894279
aF-0.0590436760979551
aF0.6933602639711958
abag3
(g26
g5
Ntp295
Rp296
(lp297
F-0.42497521672616895
aF0.3728110501078681
aF0.669083985355548
aF0.48242575244979524
abababag3
(g4
g5
Ntp298
Rp299
(lp300
g3
(g9
g5
Ntp301
Rp302
(lp303
I0
ag3
(g13
g5
Ntp304
Rp305
(lp306
I61
aI225000000
abaS'/base_link'
p307
abag3
(g18
g5
Ntp308
Rp309
(lp310
g3
(g22
g5
Ntp311
Rp312
(lp313
F0.47037630103119143
aF-0.17390855596385743
aF0.6047094238166394
abag3
(g26
g5
Ntp314
Rp315
(lp316
F-0.2614780133622415
aF0.3109542028844465
aF0.6212880494358731
aF0.670028276914342
abababag3
(g4
g5
Ntp317
Rp318
(lp319
g3
(g9
g5
Ntp320
Rp321
(lp322
I0
ag3
(g13
g5
Ntp323
Rp324
(lp325
I61
aI368000000
abaS'/base_link'
p326
abag3
(g18
g5
Ntp327
Rp328
(lp329
g3
(g22
g5
Ntp330
Rp331
(lp332
F0.48312076318036756
aF-0.204877741766322
aF0.5852875750712606
abag3
(g26
g5
Ntp333
Rp334
(lp335
F-0.245515373338473
aF0.2605805942765796
aF0.624644486848907
aF0.694002320161972
abababag3
(g4
g5
Ntp336
Rp337
(lp338
g3
(g9
g5
Ntp339
Rp340
(lp341
I0
ag3
(g13
g5
Ntp342
Rp343
(lp344
I61
aI736000000
abaS'/base_link'
p345
abag3
(g18
g5
Ntp346
Rp347
(lp348
g3
(g22
g5
Ntp349
Rp350
(lp351
F0.4556284483555893
aF-0.26245421530874313
aF0.4662144307864825
abag3
(g26
g5
Ntp352
Rp353
(lp354
F-0.129059438564806
aF0.13931151187041155
aF0.6299436585165076
aF0.7530650377441213
abababag3
(g4
g5
Ntp355
Rp356
(lp357
g3
(g9
g5
Ntp358
Rp359
(lp360
I0
ag3
(g13
g5
Ntp361
Rp362
(lp363
I61
aI955000000
abaS'/base_link'
p364
abag3
(g18
g5
Ntp365
Rp366
(lp367
g3
(g22
g5
Ntp368
Rp369
(lp370
F0.4520636201499253
aF-0.2764059335621614
aF0.44215484952114126
abag3
(g26
g5
Ntp371
Rp372
(lp373
F-0.10679995070551988
aF0.07923809439539241
aF0.6243207214900426
aF0.7697653744122543
abababag3
(g4
g5
Ntp374
Rp375
(lp376
g3
(g9
g5
Ntp377
Rp378
(lp379
I0
ag3
(g13
g5
Ntp380
Rp381
(lp382
I62
aI0
abaS'/base_link'
p383
abag3
(g18
g5
Ntp384
Rp385
(lp386
g3
(g22
g5
Ntp387
Rp388
(lp389
F0.4410283820959175
aF-0.27387534236329836
aF0.4443983417005786
abag3
(g26
g5
Ntp390
Rp391
(lp392
F-0.08324223566413338
aF0.08494410573480039
aF0.6526901618512204
aF0.7482317700587029
abababag3
(g4
g5
Ntp393
Rp394
(lp395
g3
(g9
g5
Ntp396
Rp397
(lp398
I0
ag3
(g13
g5
Ntp399
Rp400
(lp401
I62
aI62000000
abaS'/base_link'
p402
abag3
(g18
g5
Ntp403
Rp404
(lp405
g3
(g22
g5
Ntp406
Rp407
(lp408
F0.43372297655168845
aF-0.2716049844214973
aF0.4497332800138259
abag3
(g26
g5
Ntp409
Rp410
(lp411
F-0.05874247372998778
aF0.08247576116449738
aF0.6750688413078
aF0.7307729675458464
abababag3
(g4
g5
Ntp412
Rp413
(lp414
g3
(g9
g5
Ntp415
Rp416
(lp417
I0
ag3
(g13
g5
Ntp418
Rp419
(lp420
I62
aI145000000
abaS'/base_link'
p421
abag3
(g18
g5
Ntp422
Rp423
(lp424
g3
(g22
g5
Ntp425
Rp426
(lp427
F0.4459072807933929
aF-0.27315570209832185
aF0.44963650882606376
abag3
(g26
g5
Ntp428
Rp429
(lp430
F-0.07807507714170472
aF0.06445288743248374
aF0.6426929370115497
aF0.7594049620238208
abababasS'RLAB'
p431
(lp432
g3
(g4
g5
Ntp433
Rp434
(lp435
g3
(g9
g5
Ntp436
Rp437
(lp438
I0
ag3
(g13
g5
Ntp439
Rp440
(lp441
I1627
aI33000000
abaS'/base_link'
p442
abag3
(g18
g5
Ntp443
Rp444
(lp445
g3
(g22
g5
Ntp446
Rp447
(lp448
F0.3608732962143377
aF-0.05555982006840394
aF0.5720916165585321
abag3
(g26
g5
Ntp449
Rp450
(lp451
F-0.05707103541645489
aF-0.026534082402433275
aF-0.22724457120075695
aF0.9718018029656761
abababag3
(g4
g5
Ntp452
Rp453
(lp454
g3
(g9
g5
Ntp455
Rp456
(lp457
I0
ag3
(g13
g5
Ntp458
Rp459
(lp460
I1627
aI529000000
abaS'/base_link'
p461
abag3
(g18
g5
Ntp462
Rp463
(lp464
g3
(g22
g5
Ntp465
Rp466
(lp467
F0.3572756353919946
aF-0.058441748428288164
aF0.5872096742383004
abag3
(g26
g5
Ntp468
Rp469
(lp470
F-0.034277185198742496
aF-0.06095755217257355
aF-0.23332387059744303
aF0.9698810353942419
abababag3
(g4
g5
Ntp471
Rp472
(lp473
g3
(g9
g5
Ntp474
Rp475
(lp476
I0
ag3
(g13
g5
Ntp477
Rp478
(lp479
I1627
aI563000000
abaS'/base_link'
p480
abag3
(g18
g5
Ntp481
Rp482
(lp483
g3
(g22
g5
Ntp484
Rp485
(lp486
F0.3555547363317792
aF-0.05889312817950859
aF0.5944582353447072
abag3
(g26
g5
Ntp487
Rp488
(lp489
F0.0023682154086625985
aF-0.09409209221762617
aF-0.23400621554762677
aF0.967668414707727
abababag3
(g4
g5
Ntp490
Rp491
(lp492
g3
(g9
g5
Ntp493
Rp494
(lp495
I0
ag3
(g13
g5
Ntp496
Rp497
(lp498
I1627
aI590000000
abaS'/base_link'
p499
abag3
(g18
g5
Ntp500
Rp501
(lp502
g3
(g22
g5
Ntp503
Rp504
(lp505
F0.35020679839868435
aF-0.0613342942376926
aF0.6130846297764138
abag3
(g26
g5
Ntp506
Rp507
(lp508
F0.017982591512010104
aF-0.12901591678336502
aF-0.2376682887828893
aF0.9625722331991886
abababag3
(g4
g5
Ntp509
Rp510
(lp511
g3
(g9
g5
Ntp512
Rp513
(lp514
I0
ag3
(g13
g5
Ntp515
Rp516
(lp517
I1627
aI642000000
abaS'/base_link'
p518
abag3
(g18
g5
Ntp519
Rp520
(lp521
g3
(g22
g5
Ntp522
Rp523
(lp524
F0.3398666265169269
aF-0.06381617866408548
aF0.6462105595873668
abag3
(g26
g5
Ntp525
Rp526
(lp527
F0.0026936907956960727
aF-0.16429586268459478
aF-0.24215151366116935
aF0.9562229122784218
abababag3
(g4
g5
Ntp528
Rp529
(lp530
g3
(g9
g5
Ntp531
Rp532
(lp533
I0
ag3
(g13
g5
Ntp534
Rp535
(lp536
I1627
aI697000000
abaS'/base_link'
p537
abag3
(g18
g5
Ntp538
Rp539
(lp540
g3
(g22
g5
Ntp541
Rp542
(lp543
F0.33325094004244254
aF-0.06475279342270159
aF0.6627876137086037
abag3
(g26
g5
Ntp544
Rp545
(lp546
F0.02112409855896871
aF-0.19897753559852108
aF-0.2428795882674313
aF0.9491950370657514
abababag3
(g4
g5
Ntp547
Rp548
(lp549
g3
(g9
g5
Ntp550
Rp551
(lp552
I0
ag3
(g13
g5
Ntp553
Rp554
(lp555
I1627
aI771000000
abaS'/base_link'
p556
abag3
(g18
g5
Ntp557
Rp558
(lp559
g3
(g22
g5
Ntp560
Rp561
(lp562
F0.32546036442239545
aF-0.06472667521977005
aF0.681759907968572
abag3
(g26
g5
Ntp563
Rp564
(lp565
F0.03359684895052275
aF-0.2338424877580389
aF-0.24095126283209287
aF0.9413455431452081
abababag3
(g4
g5
Ntp566
Rp567
(lp568
g3
(g9
g5
Ntp569
Rp570
(lp571
I0
ag3
(g13
g5
Ntp572
Rp573
(lp574
I1627
aI832000000
abaS'/base_link'
p575
abag3
(g18
g5
Ntp576
Rp577
(lp578
g3
(g22
g5
Ntp579
Rp580
(lp581
F0.31569640649751834
aF-0.06452440060092099
aF0.7030666970889875
abag3
(g26
g5
Ntp582
Rp583
(lp584
F0.03908739832937194
aF-0.26773463187599394
aF-0.23970164912628242
aF0.9323805347561733
abababag3
(g4
g5
Ntp585
Rp586
(lp587
g3
(g9
g5
Ntp588
Rp589
(lp590
I0
ag3
(g13
g5
Ntp591
Rp592
(lp593
I1627
aI894000000
abaS'/base_link'
p594
abag3
(g18
g5
Ntp595
Rp596
(lp597
g3
(g22
g5
Ntp598
Rp599
(lp600
F0.30426587132783744
aF-0.06270961112378977
aF0.726403592961532
abag3
(g26
g5
Ntp601
Rp602
(lp603
F0.041798288855593835
aF-0.30273623344851364
aF-0.23669309759026613
aF0.9222689702897285
abababag3
(g4
g5
Ntp604
Rp605
(lp606
g3
(g9
g5
Ntp607
Rp608
(lp609
I0
ag3
(g13
g5
Ntp610
Rp611
(lp612
I1627
aI976000000
abaS'/base_link'
p613
abag3
(g18
g5
Ntp614
Rp615
(lp616
g3
(g22
g5
Ntp617
Rp618
(lp619
F0.2912608364816133
aF-0.05888119957078518
aF0.7510186727459243
abag3
(g26
g5
Ntp620
Rp621
(lp622
F0.038593159413602286
aF-0.33667115514793033
aF-0.23252501971547204
aF0.9116442379262614
abababag3
(g4
g5
Ntp623
Rp624
(lp625
g3
(g9
g5
Ntp626
Rp627
(lp628
I0
ag3
(g13
g5
Ntp629
Rp630
(lp631
I1628
aI46000000
abaS'/base_link'
p632
abag3
(g18
g5
Ntp633
Rp634
(lp635
g3
(g22
g5
Ntp636
Rp637
(lp638
F0.2785915493553028
aF-0.05509274006890953
aF0.7726347122028343
abag3
(g26
g5
Ntp639
Rp640
(lp641
F0.04108898964717477
aF-0.3703419403795609
aF-0.22668690449231768
aF0.8998730963071221
abababag3
(g4
g5
Ntp642
Rp643
(lp644
g3
(g9
g5
Ntp645
Rp646
(lp647
I0
ag3
(g13
g5
Ntp648
Rp649
(lp650
I1628
aI159000000
abaS'/base_link'
p651
abag3
(g18
g5
Ntp652
Rp653
(lp654
g3
(g22
g5
Ntp655
Rp656
(lp657
F0.29092097202719114
aF-0.05861732508059317
aF0.7515890079373211
abag3
(g26
g5
Ntp658
Rp659
(lp660
F0.038372236925845786
aF-0.3369661733083928
aF-0.23272527700788254
aF0.9114934530323349
abababag3
(g4
g5
Ntp661
Rp662
(lp663
g3
(g9
g5
Ntp664
Rp665
(lp666
I0
ag3
(g13
g5
Ntp667
Rp668
(lp669
I1628
aI189000000
abaS'/base_link'
p670
abag3
(g18
g5
Ntp671
Rp672
(lp673
g3
(g22
g5
Ntp674
Rp675
(lp676
F0.30180961418850527
aF-0.06142134150831252
aF0.7321590265349168
abag3
(g26
g5
Ntp677
Rp678
(lp679
F0.032369702227196206
aF-0.30463681632946893
aF-0.23819323904819195
aF0.9216358247084901
abababag3
(g4
g5
Ntp680
Rp681
(lp682
g3
(g9
g5
Ntp683
Rp684
(lp685
I0
ag3
(g13
g5
Ntp686
Rp687
(lp688
I1628
aI251000000
abaS'/base_link'
p689
abag3
(g18
g5
Ntp690
Rp691
(lp692
g3
(g22
g5
Ntp693
Rp694
(lp695
F0.31300463641481446
aF-0.0635758018810176
aF0.7099610881499272
abag3
(g26
g5
Ntp696
Rp697
(lp698
F0.027394057086734005
aF-0.2695863590441911
aF-0.24125804508158408
aF0.9318622839975002
abababag3
(g4
g5
Ntp699
Rp700
(lp701
g3
(g9
g5
Ntp702
Rp703
(lp704
I0
ag3
(g13
g5
Ntp705
Rp706
(lp707
I1628
aI315000000
abaS'/base_link'
p708
abag3
(g18
g5
Ntp709
Rp710
(lp711
g3
(g22
g5
Ntp712
Rp713
(lp714
F0.3240475446975692
aF-0.06463742461256018
aF0.6861416821693224
abag3
(g26
g5
Ntp715
Rp716
(lp717
F0.026342213565702988
aF-0.23481664261881374
aF-0.24246203099744632
aF0.9409460110220355
abababag3
(g4
g5
Ntp718
Rp719
(lp720
g3
(g9
g5
Ntp721
Rp722
(lp723
I0
ag3
(g13
g5
Ntp724
Rp725
(lp726
I1628
aI337000000
abaS'/base_link'
p727
abag3
(g18
g5
Ntp728
Rp729
(lp730
g3
(g22
g5
Ntp731
Rp732
(lp733
F0.333471299087638
aF-0.06503115901427875
aF0.6614590563111821
abag3
(g26
g5
Ntp734
Rp735
(lp736
F0.024637941924804924
aF-0.19932122549970346
aF-0.24308651090153705
aF0.9489852312342502
abababag3
(g4
g5
Ntp737
Rp738
(lp739
g3
(g9
g5
Ntp740
Rp741
(lp742
I0
ag3
(g13
g5
Ntp743
Rp744
(lp745
I1628
aI376000000
abaS'/base_link'
p746
abag3
(g18
g5
Ntp747
Rp748
(lp749
g3
(g22
g5
Ntp750
Rp751
(lp752
F0.34281075050367094
aF-0.06382905131344213
aF0.6362396451683754
abag3
(g26
g5
Ntp753
Rp754
(lp755
F0.021580987849292545
aF-0.16278745735480812
aF-0.24131673212897511
aF0.9564521626751636
abababag3
(g4
g5
Ntp756
Rp757
(lp758
g3
(g9
g5
Ntp759
Rp760
(lp761
I0
ag3
(g13
g5
Ntp762
Rp763
(lp764
I1628
aI447000000
abaS'/base_link'
p765
abag3
(g18
g5
Ntp766
Rp767
(lp768
g3
(g22
g5
Ntp769
Rp770
(lp771
F0.35117084547140826
aF-0.061394410589444365
aF0.6102294521161361
abag3
(g26
g5
Ntp772
Rp773
(lp774
F0.019804627035360525
aF-0.126411604143375
aF-0.2369788356882055
aF0.963051875301508
abababag3
(g4
g5
Ntp775
Rp776
(lp777
g3
(g9
g5
Ntp778
Rp779
(lp780
I0
ag3
(g13
g5
Ntp781
Rp782
(lp783
I1628
aI504000000
abaS'/base_link'
p784
abag3
(g18
g5
Ntp785
Rp786
(lp787
g3
(g22
g5
Ntp788
Rp789
(lp790
F0.3578397762991971
aF-0.05766887710948358
aF0.5855796636693484
abag3
(g26
g5
Ntp791
Rp792
(lp793
F0.017503284715984894
aF-0.09163912949303828
aF-0.23212974769862987
aF0.9682002299128418
abababag3
(g4
g5
Ntp794
Rp795
(lp796
g3
(g9
g5
Ntp797
Rp798
(lp799
I0
ag3
(g13
g5
Ntp800
Rp801
(lp802
I1628
aI571000000
abaS'/base_link'
p803
abag3
(g18
g5
Ntp804
Rp805
(lp806
g3
(g22
g5
Ntp807
Rp808
(lp809
F0.3636426394605364
aF-0.053090274077262474
aF0.5607040473967868
abag3
(g26
g5
Ntp810
Rp811
(lp812
F0.01384128343309311
aF-0.056126703581115635
aF-0.2257787006911283
aF0.9724619223045539
abababag3
(g4
g5
Ntp813
Rp814
(lp815
g3
(g9
g5
Ntp816
Rp817
(lp818
I0
ag3
(g13
g5
Ntp819
Rp820
(lp821
I1628
aI778000000
abaS'/base_link'
p822
abag3
(g18
g5
Ntp823
Rp824
(lp825
g3
(g22
g5
Ntp826
Rp827
(lp828
F0.34844093630094475
aF-0.0622692441813464
aF0.6201139326905816
abag3
(g26
g5
Ntp829
Rp830
(lp831
F-0.04994658544557199
aF-0.09481205886763067
aF-0.2412812106373085
aF0.964520289827541
abababag3
(g4
g5
Ntp832
Rp833
(lp834
g3
(g9
g5
Ntp835
Rp836
(lp837
I0
ag3
(g13
g5
Ntp838
Rp839
(lp840
I1628
aI834000000
abaS'/base_link'
p841
abag3
(g18
g5
Ntp842
Rp843
(lp844
g3
(g22
g5
Ntp845
Rp846
(lp847
F0.3349111500456592
aF-0.06309110985500489
aF0.6628429525489673
abag3
(g26
g5
Ntp848
Rp849
(lp850
F-0.08114776955801252
aF-0.1316437627902445
aF-0.2508298966850491
aF0.9555989337285559
abababag3
(g4
g5
Ntp851
Rp852
(lp853
g3
(g9
g5
Ntp854
Rp855
(lp856
I0
ag3
(g13
g5
Ntp857
Rp858
(lp859
I1628
aI892000000
abaS'/base_link'
p860
abag3
(g18
g5
Ntp861
Rp862
(lp863
g3
(g22
g5
Ntp864
Rp865
(lp866
F0.31768674248228557
aF-0.06224972178590879
aF0.7050214316736367
abag3
(g26
g5
Ntp867
Rp868
(lp869
F-0.11395143750025886
aF-0.16775012847748655
aF-0.26333793318435894
aF0.9431479720773414
abababag3
(g4
g5
Ntp870
Rp871
(lp872
g3
(g9
g5
Ntp873
Rp874
(lp875
I0
ag3
(g13
g5
Ntp876
Rp877
(lp878
I1628
aI929000000
abaS'/base_link'
p879
abag3
(g18
g5
Ntp880
Rp881
(lp882
g3
(g22
g5
Ntp883
Rp884
(lp885
F0.2990858597669046
aF-0.056452666830049195
aF0.7454572914790069
abag3
(g26
g5
Ntp886
Rp887
(lp888
F-0.14557128317442486
aF-0.203446521894846
aF-0.2721034766370266
aF0.9291814743342037
abababag3
(g4
g5
Ntp889
Rp890
(lp891
g3
(g9
g5
Ntp892
Rp893
(lp894
I0
ag3
(g13
g5
Ntp895
Rp896
(lp897
I1628
aI964000000
abaS'/base_link'
p898
abag3
(g18
g5
Ntp899
Rp900
(lp901
g3
(g22
g5
Ntp902
Rp903
(lp904
F0.29468706834641145
aF-0.05454614067633718
aF0.7540695081162004
abag3
(g26
g5
Ntp905
Rp906
(lp907
F-0.1123950741380373
aF-0.2393746067367554
aF-0.2652752214194235
aF0.9271980381018958
abababag3
(g4
g5
Ntp908
Rp909
(lp910
g3
(g9
g5
Ntp911
Rp912
(lp913
I0
ag3
(g13
g5
Ntp914
Rp915
(lp916
I1628
aI986000000
abaS'/base_link'
p917
abag3
(g18
g5
Ntp918
Rp919
(lp920
g3
(g22
g5
Ntp921
Rp922
(lp923
F0.2908074744348321
aF-0.054213689085304745
aF0.759849666417637
abag3
(g26
g5
Ntp924
Rp925
(lp926
F-0.07427171098107303
aF-0.27435572197319513
aF-0.25667411113159955
aF0.9237591955933723
abababag3
(g4
g5
Ntp927
Rp928
(lp929
g3
(g9
g5
Ntp930
Rp931
(lp932
I0
ag3
(g13
g5
Ntp933
Rp934
(lp935
I1629
aI118000000
abaS'/base_link'
p936
abag3
(g18
g5
Ntp937
Rp938
(lp939
g3
(g22
g5
Ntp940
Rp941
(lp942
F0.32482222693159063
aF-0.06507185946878587
aF0.6837700376285714
abag3
(g26
g5
Ntp943
Rp944
(lp945
F0.03092886383616552
aF-0.23476602468886199
aF-0.2414629467196938
aF0.9410759610121995
abababag3
(g4
g5
Ntp946
Rp947
(lp948
g3
(g9
g5
Ntp949
Rp950
(lp951
I0
ag3
(g13
g5
Ntp952
Rp953
(lp954
I1629
aI169000000
abaS'/base_link'
p955
abag3
(g18
g5
Ntp956
Rp957
(lp958
g3
(g22
g5
Ntp959
Rp960
(lp961
F0.3397554530563415
aF-0.06509703037437746
aF0.6424732288679704
abag3
(g26
g5
Ntp962
Rp963
(lp964
F0.0626092699843352
aF-0.19794568610393173
aF-0.23865343603850125
aF0.9486527932451837
abababag3
(g4
g5
Ntp965
Rp966
(lp967
g3
(g9
g5
Ntp968
Rp969
(lp970
I0
ag3
(g13
g5
Ntp971
Rp972
(lp973
I1629
aI233000000
abaS'/base_link'
p974
abag3
(g18
g5
Ntp975
Rp976
(lp977
g3
(g22
g5
Ntp978
Rp979
(lp980
F0.3530012373798574
aF-0.06073131214794403
aF0.5988360675949929
abag3
(g26
g5
Ntp981
Rp982
(lp983
F0.09668358271334838
aF-0.15972894302641977
aF-0.2336725814625015
aF0.9542201393106438
abababasS'LLAD'
p984
(lp985
g3
(g4
g5
Ntp986
Rp987
(lp988
g3
(g9
g5
Ntp989
Rp990
(lp991
I0
ag3
(g13
g5
Ntp992
Rp993
(lp994
I147
aI289000000
abaS'/base_link'
p995
abag3
(g18
g5
Ntp996
Rp997
(lp998
g3
(g22
g5
Ntp999
Rp1000
(lp1001
F0.3242550067062675
aF-0.0752096288977306
aF0.6723931973391564
abag3
(g26
g5
Ntp1002
Rp1003
(lp1004
F-0.10158967737293953
aF-0.4880238708183467
aF-0.04478163608662168
aF0.8657406332338485
abababag3
(g4
g5
Ntp1005
Rp1006
(lp1007
g3
(g9
g5
Ntp1008
Rp1009
(lp1010
I0
ag3
(g13
g5
Ntp1011
Rp1012
(lp1013
I147
aI605000000
abaS'/base_link'
p1014
abag3
(g18
g5
Ntp1015
Rp1016
(lp1017
g3
(g22
g5
Ntp1018
Rp1019
(lp1020
F0.3259824779937879
aF-0.0894982020194488
aF0.670857158852045
abag3
(g26
g5
Ntp1021
Rp1022
(lp1023
F-0.07891696419626473
aF-0.4738857603024828
aF-0.08783723172571958
aF0.8726333821642085
abababag3
(g4
g5
Ntp1024
Rp1025
(lp1026
g3
(g9
g5
Ntp1027
Rp1028
(lp1029
I0
ag3
(g13
g5
Ntp1030
Rp1031
(lp1032
I147
aI870000000
abaS'/base_link'
p1033
abag3
(g18
g5
Ntp1034
Rp1035
(lp1036
g3
(g22
g5
Ntp1037
Rp1038
(lp1039
F0.32724558289768546
aF-0.10374701415805977
aF0.6679565970902805
abag3
(g26
g5
Ntp1040
Rp1041
(lp1042
F-0.05561940411462338
aF-0.4588458174380306
aF-0.13098010699220422
aF0.8770468683473366
abababag3
(g4
g5
Ntp1043
Rp1044
(lp1045
g3
(g9
g5
Ntp1046
Rp1047
(lp1048
I0
ag3
(g13
g5
Ntp1049
Rp1050
(lp1051
I148
aI144000000
abaS'/base_link'
p1052
abag3
(g18
g5
Ntp1053
Rp1054
(lp1055
g3
(g22
g5
Ntp1056
Rp1057
(lp1058
F0.3242859838003253
aF-0.12254974842079891
aF0.6648555334591117
abag3
(g26
g5
Ntp1059
Rp1060
(lp1061
F-0.04442615772337283
aF-0.4464711538193561
aF-0.17422670932082943
aF0.8765471345434802
abababag3
(g4
g5
Ntp1062
Rp1063
(lp1064
g3
(g9
g5
Ntp1065
Rp1066
(lp1067
I0
ag3
(g13
g5
Ntp1068
Rp1069
(lp1070
I148
aI472000000
abaS'/base_link'
p1071
abag3
(g18
g5
Ntp1072
Rp1073
(lp1074
g3
(g22
g5
Ntp1075
Rp1076
(lp1077
F0.31687964779920547
aF-0.14455293238003186
aF0.662480016033392
abag3
(g26
g5
Ntp1078
Rp1079
(lp1080
F-0.04414811091055323
aF-0.43714481383275167
aF-0.21847148368074584
aF0.8713355076321014
abababag3
(g4
g5
Ntp1081
Rp1082
(lp1083
g3
(g9
g5
Ntp1084
Rp1085
(lp1086
I0
ag3
(g13
g5
Ntp1087
Rp1088
(lp1089
I148
aI719000000
abaS'/base_link'
p1090
abag3
(g18
g5
Ntp1091
Rp1092
(lp1093
g3
(g22
g5
Ntp1094
Rp1095
(lp1096
F0.3062124812698351
aF-0.1671990469250358
aF0.6611253946192307
abag3
(g26
g5
Ntp1097
Rp1098
(lp1099
F-0.05132945377854931
aF-0.4299968492782758
aF-0.2598939895578584
aF0.8630892833173468
abababag3
(g4
g5
Ntp1100
Rp1101
(lp1102
g3
(g9
g5
Ntp1103
Rp1104
(lp1105
I0
ag3
(g13
g5
Ntp1106
Rp1107
(lp1108
I148
aI979000000
abaS'/base_link'
p1109
abag3
(g18
g5
Ntp1110
Rp1111
(lp1112
g3
(g22
g5
Ntp1113
Rp1114
(lp1115
F0.290670568717006
aF-0.19151714884686266
aF0.6600071732438215
abag3
(g26
g5
Ntp1116
Rp1117
(lp1118
F-0.06542949487200521
aF-0.42546230244865046
aF-0.30266551399071334
aF0.8503495734323765
abababag3
(g4
g5
Ntp1119
Rp1120
(lp1121
g3
(g9
g5
Ntp1122
Rp1123
(lp1124
I0
ag3
(g13
g5
Ntp1125
Rp1126
(lp1127
I149
aI295000000
abaS'/base_link'
p1128
abag3
(g18
g5
Ntp1129
Rp1130
(lp1131
g3
(g22
g5
Ntp1132
Rp1133
(lp1134
F0.26392470833726095
aF-0.19134082239051659
aF0.7048779396486139
abag3
(g26
g5
Ntp1135
Rp1136
(lp1137
F-0.15239829004026254
aF-0.4395469921840055
aF-0.30446511442960006
aF0.8311884244563131
abababag3
(g4
g5
Ntp1138
Rp1139
(lp1140
g3
(g9
g5
Ntp1141
Rp1142
(lp1143
I0
ag3
(g13
g5
Ntp1144
Rp1145
(lp1146
I149
aI548000000
abaS'/base_link'
p1147
abag3
(g18
g5
Ntp1148
Rp1149
(lp1150
g3
(g22
g5
Ntp1151
Rp1152
(lp1153
F0.2547888360876731
aF-0.1770367921591456
aF0.736322195188193
abag3
(g26
g5
Ntp1154
Rp1155
(lp1156
F-0.19874516165068268
aF-0.4463784561698715
aF-0.2927725994180726
aF0.821906831470472
abababag3
(g4
g5
Ntp1157
Rp1158
(lp1159
g3
(g9
g5
Ntp1160
Rp1161
(lp1162
I0
ag3
(g13
g5
Ntp1163
Rp1164
(lp1165
I149
aI867000000
abaS'/base_link'
p1166
abag3
(g18
g5
Ntp1167
Rp1168
(lp1169
g3
(g22
g5
Ntp1170
Rp1171
(lp1172
F0.24449448059150497
aF-0.15920553893432451
aF0.7695520647393732
abag3
(g26
g5
Ntp1173
Rp1174
(lp1175
F-0.24821069926004233
aF-0.4514309159408269
aF-0.28456396726849886
aF0.808470732579776
abababag3
(g4
g5
Ntp1176
Rp1177
(lp1178
g3
(g9
g5
Ntp1179
Rp1180
(lp1181
I0
ag3
(g13
g5
Ntp1182
Rp1183
(lp1184
I150
aI153000000
abaS'/base_link'
p1185
abag3
(g18
g5
Ntp1186
Rp1187
(lp1188
g3
(g22
g5
Ntp1189
Rp1190
(lp1191
F0.25614976551351
aF-0.1526950419165987
aF0.7797394156631052
abag3
(g26
g5
Ntp1192
Rp1193
(lp1194
F-0.30123572880900856
aF-0.3735519336288226
aF-0.28395559861719205
aF0.8301115627342058
abababag3
(g4
g5
Ntp1195
Rp1196
(lp1197
g3
(g9
g5
Ntp1198
Rp1199
(lp1200
I0
ag3
(g13
g5
Ntp1201
Rp1202
(lp1203
I150
aI466000000
abaS'/base_link'
p1204
abag3
(g18
g5
Ntp1205
Rp1206
(lp1207
g3
(g22
g5
Ntp1208
Rp1209
(lp1210
F0.2681074465428905
aF-0.15475460642152933
aF0.7761943749234691
abag3
(g26
g5
Ntp1211
Rp1212
(lp1213
F-0.3086679599280034
aF-0.3432513052833463
aF-0.27791177234897485
aF0.8424177578404998
abababag3
(g4
g5
Ntp1214
Rp1215
(lp1216
g3
(g9
g5
Ntp1217
Rp1218
(lp1219
I0
ag3
(g13
g5
Ntp1220
Rp1221
(lp1222
I150
aI800000000
abaS'/base_link'
p1223
abag3
(g18
g5
Ntp1224
Rp1225
(lp1226
g3
(g22
g5
Ntp1227
Rp1228
(lp1229
F0.28282251522823687
aF-0.15395366985684655
aF0.7754153927847609
abag3
(g26
g5
Ntp1230
Rp1231
(lp1232
F-0.31322560148606515
aF-0.3258786822212188
aF-0.2640425917907162
aF0.8520412647095771
abababag3
(g4
g5
Ntp1233
Rp1234
(lp1235
g3
(g9
g5
Ntp1236
Rp1237
(lp1238
I0
ag3
(g13
g5
Ntp1239
Rp1240
(lp1241
I151
aI172000000
abaS'/base_link'
p1242
abag3
(g18
g5
Ntp1243
Rp1244
(lp1245
g3
(g22
g5
Ntp1246
Rp1247
(lp1248
F0.2985309216447236
aF-0.1510041748187076
aF0.7770080541787233
abag3
(g26
g5
Ntp1249
Rp1250
(lp1251
F-0.3174875195151416
aF-0.3154488975565585
aF-0.24656970296426003
aF0.8595912107290249
abababag3
(g4
g5
Ntp1252
Rp1253
(lp1254
g3
(g9
g5
Ntp1255
Rp1256
(lp1257
I0
ag3
(g13
g5
Ntp1258
Rp1259
(lp1260
I151
aI526000000
abaS'/base_link'
p1261
abag3
(g18
g5
Ntp1262
Rp1263
(lp1264
g3
(g22
g5
Ntp1265
Rp1266
(lp1267
F0.31678114702114657
aF-0.1446546802425548
aF0.7812094618801452
abag3
(g26
g5
Ntp1268
Rp1269
(lp1270
F-0.3216115022024056
aF-0.3135313977789396
aF-0.22211318721705664
aF0.8654073239360625
abababag3
(g4
g5
Ntp1271
Rp1272
(lp1273
g3
(g9
g5
Ntp1274
Rp1275
(lp1276
I0
ag3
(g13
g5
Ntp1277
Rp1278
(lp1279
I151
aI857000000
abaS'/base_link'
p1280
abag3
(g18
g5
Ntp1281
Rp1282
(lp1283
g3
(g22
g5
Ntp1284
Rp1285
(lp1286
F0.3342038836337245
aF-0.13672641687184886
aF0.7867618290433642
abag3
(g26
g5
Ntp1287
Rp1288
(lp1289
F-0.3254099847380313
aF-0.3166947675149228
aF-0.19715611958442533
aF0.8688741166428396
abababag3
(g4
g5
Ntp1290
Rp1291
(lp1292
g3
(g9
g5
Ntp1293
Rp1294
(lp1295
I0
ag3
(g13
g5
Ntp1296
Rp1297
(lp1298
I152
aI234000000
abaS'/base_link'
p1299
abag3
(g18
g5
Ntp1300
Rp1301
(lp1302
g3
(g22
g5
Ntp1303
Rp1304
(lp1305
F0.3516613302107991
aF-0.1266055433925425
aF0.7939160152856458
abag3
(g26
g5
Ntp1306
Rp1307
(lp1308
F-0.3293004508267149
aF-0.32330950468433184
aF-0.1697199628175277
aF0.8707624885623584
abababag3
(g4
g5
Ntp1309
Rp1310
(lp1311
g3
(g9
g5
Ntp1312
Rp1313
(lp1314
I0
ag3
(g13
g5
Ntp1315
Rp1316
(lp1317
I152
aI677000000
abaS'/base_link'
p1318
abag3
(g18
g5
Ntp1319
Rp1320
(lp1321
g3
(g22
g5
Ntp1322
Rp1323
(lp1324
F0.3679257760848931
aF-0.11592511619842628
aF0.8001277403185021
abag3
(g26
g5
Ntp1325
Rp1326
(lp1327
F-0.33322104000809155
aF-0.3280289057903992
aF-0.14469343370858906
aF0.8720232713084539
abababag3
(g4
g5
Ntp1328
Rp1329
(lp1330
g3
(g9
g5
Ntp1331
Rp1332
(lp1333
I0
ag3
(g13
g5
Ntp1334
Rp1335
(lp1336
I153
aI3000000
abaS'/base_link'
p1337
abag3
(g18
g5
Ntp1338
Rp1339
(lp1340
g3
(g22
g5
Ntp1341
Rp1342
(lp1343
F0.381480859520412
aF-0.10819957483939185
aF0.8018023429048444
abag3
(g26
g5
Ntp1344
Rp1345
(lp1346
F-0.341837627663466
aF-0.3182371242267931
aF-0.12645875845887924
aF0.8751459029706492
abababasS'RLAD'
p1347
(lp1348
g3
(g4
g5
Ntp1349
Rp1350
(lp1351
g3
(g9
g5
Ntp1352
Rp1353
(lp1354
I0
ag3
(g13
g5
Ntp1355
Rp1356
(lp1357
I1600
aI56000000
abaS'/base_link'
p1358
abag3
(g18
g5
Ntp1359
Rp1360
(lp1361
g3
(g22
g5
Ntp1362
Rp1363
(lp1364
F0.6341711269662327
aF-0.21608505591502042
aF0.47877087014618486
abag3
(g26
g5
Ntp1365
Rp1366
(lp1367
F-0.0039604742893410315
aF-0.14450812325922513
aF-0.07740784690535131
aF0.9864632492865498
abababag3
(g4
g5
Ntp1368
Rp1369
(lp1370
g3
(g9
g5
Ntp1371
Rp1372
(lp1373
I0
ag3
(g13
g5
Ntp1374
Rp1375
(lp1376
I1600
aI980000000
abaS'/base_link'
p1377
abag3
(g18
g5
Ntp1378
Rp1379
(lp1380
g3
(g22
g5
Ntp1381
Rp1382
(lp1383
F0.6540300937977395
aF-0.15177474006619365
aF0.4794169429657625
abag3
(g26
g5
Ntp1384
Rp1385
(lp1386
F0.0037134992814418966
aF-0.1450503573039753
aF-0.02410912997630271
aF0.9891235279887248
abababag3
(g4
g5
Ntp1387
Rp1388
(lp1389
g3
(g9
g5
Ntp1390
Rp1391
(lp1392
I0
ag3
(g13
g5
Ntp1393
Rp1394
(lp1395
I1601
aI37000000
abaS'/base_link'
p1396
abag3
(g18
g5
Ntp1397
Rp1398
(lp1399
g3
(g22
g5
Ntp1400
Rp1401
(lp1402
F0.6900264631259162
aF-0.044818319348091495
aF0.5055288620359968
abag3
(g26
g5
Ntp1403
Rp1404
(lp1405
F0.024737885555826816
aF-0.1705597206239675
aF0.0509039632729468
aF0.9837205930761069
abababag3
(g4
g5
Ntp1406
Rp1407
(lp1408
g3
(g9
g5
Ntp1409
Rp1410
(lp1411
I0
ag3
(g13
g5
Ntp1412
Rp1413
(lp1414
I1601
aI118000000
abaS'/base_link'
p1415
abag3
(g18
g5
Ntp1416
Rp1417
(lp1418
g3
(g22
g5
Ntp1419
Rp1420
(lp1421
F0.7085130130372026
aF0.08329407564944248
aF0.5384352114319868
abag3
(g26
g5
Ntp1422
Rp1423
(lp1424
F0.052984631978226907
aF-0.1979434762752885
aF0.13499981506888994
aF0.9694256335096321
abababasS'LLAB'
p1425
(lp1426
g3
(g4
g5
Ntp1427
Rp1428
(lp1429
g3
(g9
g5
Ntp1430
Rp1431
(lp1432
I0
ag3
(g13
g5
Ntp1433
Rp1434
(lp1435
I153
aI788000000
abaS'/base_link'
p1436
abag3
(g18
g5
Ntp1437
Rp1438
(lp1439
g3
(g22
g5
Ntp1440
Rp1441
(lp1442
F0.323946495137192
aF-0.07562484741810088
aF0.6725520557223986
abag3
(g26
g5
Ntp1443
Rp1444
(lp1445
F-0.10252263712646358
aF-0.48769685581870187
aF-0.046444081250184316
aF0.8657273433466302
abababag3
(g4
g5
Ntp1446
Rp1447
(lp1448
g3
(g9
g5
Ntp1449
Rp1450
(lp1451
I0
ag3
(g13
g5
Ntp1452
Rp1453
(lp1454
I154
aI196000000
abaS'/base_link'
p1455
abag3
(g18
g5
Ntp1456
Rp1457
(lp1458
g3
(g22
g5
Ntp1459
Rp1460
(lp1461
F0.31836909761754933
aF-0.11247192118669004
aF0.6767332634044252
abag3
(g26
g5
Ntp1462
Rp1463
(lp1464
F-0.103944459249164
aF-0.48838097125227237
aF-0.04815361453295971
aF0.8650784968530295
abababag3
(g4
g5
Ntp1465
Rp1466
(lp1467
g3
(g9
g5
Ntp1468
Rp1469
(lp1470
I0
ag3
(g13
g5
Ntp1471
Rp1472
(lp1473
I154
aI527000000
abaS'/base_link'
p1474
abag3
(g18
g5
Ntp1475
Rp1476
(lp1477
g3
(g22
g5
Ntp1478
Rp1479
(lp1480
F0.31108043032424687
aF-0.14682576247063295
aF0.6817687421813369
abag3
(g26
g5
Ntp1481
Rp1482
(lp1483
F-0.10313430207431139
aF-0.4878690034260261
aF-0.047142411832248064
aF0.8655199271180182
abababag3
(g4
g5
Ntp1484
Rp1485
(lp1486
g3
(g9
g5
Ntp1487
Rp1488
(lp1489
I0
ag3
(g13
g5
Ntp1490
Rp1491
(lp1492
I154
aI986000000
abaS'/base_link'
p1493
abag3
(g18
g5
Ntp1494
Rp1495
(lp1496
g3
(g22
g5
Ntp1497
Rp1498
(lp1499
F0.3187525261681118
aF-0.1551701350343783
aF0.6927308367419894
abag3
(g26
g5
Ntp1500
Rp1501
(lp1502
F-0.09881720939266568
aF-0.4867673537374184
aF-0.04504574190100233
aF0.8667546271003722
abababag3
(g4
g5
Ntp1503
Rp1504
(lp1505
g3
(g9
g5
Ntp1506
Rp1507
(lp1508
I0
ag3
(g13
g5
Ntp1509
Rp1510
(lp1511
I155
aI314000000
abaS'/base_link'
p1512
abag3
(g18
g5
Ntp1513
Rp1514
(lp1515
g3
(g22
g5
Ntp1516
Rp1517
(lp1518
F0.33042129251871544
aF-0.1559956997964801
aF0.7056670488867979
abag3
(g26
g5
Ntp1519
Rp1520
(lp1521
F-0.09601962548630848
aF-0.4866179320437402
aF-0.04133758010449406
aF0.867337549173358
abababag3
(g4
g5
Ntp1522
Rp1523
(lp1524
g3
(g9
g5
Ntp1525
Rp1526
(lp1527
I0
ag3
(g13
g5
Ntp1528
Rp1529
(lp1530
I155
aI662000000
abaS'/base_link'
p1531
abag3
(g18
g5
Ntp1532
Rp1533
(lp1534
g3
(g22
g5
Ntp1535
Rp1536
(lp1537
F0.34140200076047034
aF-0.15650003412200425
aF0.7190293693139344
abag3
(g26
g5
Ntp1538
Rp1539
(lp1540
F-0.09343737336507339
aF-0.4859687404442996
aF-0.03948821130506532
aF0.8680694221878474
abababag3
(g4
g5
Ntp1541
Rp1542
(lp1543
g3
(g9
g5
Ntp1544
Rp1545
(lp1546
I0
ag3
(g13
g5
Ntp1547
Rp1548
(lp1549
I156
aI16000000
abaS'/base_link'
p1550
abag3
(g18
g5
Ntp1551
Rp1552
(lp1553
g3
(g22
g5
Ntp1554
Rp1555
(lp1556
F0.3523685584831117
aF-0.15664633948104795
aF0.7337851581030285
abag3
(g26
g5
Ntp1557
Rp1558
(lp1559
F-0.0920383111572379
aF-0.48558981044063504
aF-0.03777103556515644
aF0.8685072447296495
abababag3
(g4
g5
Ntp1560
Rp1561
(lp1562
g3
(g9
g5
Ntp1563
Rp1564
(lp1565
I0
ag3
(g13
g5
Ntp1566
Rp1567
(lp1568
I156
aI348000000
abaS'/base_link'
p1569
abag3
(g18
g5
Ntp1570
Rp1571
(lp1572
g3
(g22
g5
Ntp1573
Rp1574
(lp1575
F0.36194026580229
aF-0.1564492167303604
aF0.7479802164157126
abag3
(g26
g5
Ntp1576
Rp1577
(lp1578
F-0.09183034476817477
aF-0.48553717188356743
aF-0.03658631434614294
aF0.8686093967380449
abababag3
(g4
g5
Ntp1579
Rp1580
(lp1581
g3
(g9
g5
Ntp1582
Rp1583
(lp1584
I0
ag3
(g13
g5
Ntp1585
Rp1586
(lp1587
I156
aI604000000
abaS'/base_link'
p1588
abag3
(g18
g5
Ntp1589
Rp1590
(lp1591
g3
(g22
g5
Ntp1592
Rp1593
(lp1594
F0.3716511396604923
aF-0.1557549977370658
aF0.7644991172799345
abag3
(g26
g5
Ntp1595
Rp1596
(lp1597
F-0.09276762175343917
aF-0.4857016541453918
aF-0.0360320350000008
aF0.8684409962504072
abababag3
(g4
g5
Ntp1598
Rp1599
(lp1600
g3
(g9
g5
Ntp1601
Rp1602
(lp1603
I0
ag3
(g13
g5
Ntp1604
Rp1605
(lp1606
I156
aI896000000
abaS'/base_link'
p1607
abag3
(g18
g5
Ntp1608
Rp1609
(lp1610
g3
(g22
g5
Ntp1611
Rp1612
(lp1613
F0.3801046424160878
aF-0.15483268186541205
aF0.7809711577347893
abag3
(g26
g5
Ntp1614
Rp1615
(lp1616
F-0.09432491074162769
aF-0.48581022758866854
aF-0.03718965522574454
aF0.868163673236804
abababag3
(g4
g5
Ntp1617
Rp1618
(lp1619
g3
(g9
g5
Ntp1620
Rp1621
(lp1622
I0
ag3
(g13
g5
Ntp1623
Rp1624
(lp1625
I157
aI278000000
abaS'/base_link'
p1626
abag3
(g18
g5
Ntp1627
Rp1628
(lp1629
g3
(g22
g5
Ntp1630
Rp1631
(lp1632
F0.3868023059344535
aF-0.15382948789660744
aF0.7962770855853195
abag3
(g26
g5
Ntp1633
Rp1634
(lp1635
F-0.09614978345610613
aF-0.4859235335019689
aF-0.0400361587480959
aF0.8677733832764185
abababag3
(g4
g5
Ntp1636
Rp1637
(lp1638
g3
(g9
g5
Ntp1639
Rp1640
(lp1641
I0
ag3
(g13
g5
Ntp1642
Rp1643
(lp1644
I157
aI610000000
abaS'/base_link'
p1645
abag3
(g18
g5
Ntp1646
Rp1647
(lp1648
g3
(g22
g5
Ntp1649
Rp1650
(lp1651
F0.3926132429767809
aF-0.15243630092408944
aF0.8119098575881081
abag3
(g26
g5
Ntp1652
Rp1653
(lp1654
F-0.09915044553746206
aF-0.4866930169071001
aF-0.04275312641862773
aF0.866874423792178
abababag3
(g4
g5
Ntp1655
Rp1656
(lp1657
g3
(g9
g5
Ntp1658
Rp1659
(lp1660
I0
ag3
(g13
g5
Ntp1661
Rp1662
(lp1663
I157
aI942000000
abaS'/base_link'
p1664
abag3
(g18
g5
Ntp1665
Rp1666
(lp1667
g3
(g22
g5
Ntp1668
Rp1669
(lp1670
F0.3973332729993309
aF-0.1509350384745489
aF0.8271595699275229
abag3
(g26
g5
Ntp1671
Rp1672
(lp1673
F-0.10231231347906626
aF-0.48754891223661206
aF-0.04668030124568574
aF0.8658228445606351
abababasS'GRASP'
p1674
(lp1675
cnumpy.core.multiarray
_reconstruct
p1676
(cnumpy
ndarray
p1677
(I0
tp1678
S'b'
p1679
tp1680
Rp1681
(I1
(I4
tp1682
cnumpy
dtype
p1683
(S'f8'
p1684
I0
I1
tp1685
Rp1686
(I3
S'<'
p1687
NNNI-1
I-1
I0
tp1688
bI00
S'\x14\xfb]\x1a\x95\xff\xef?\x8dA\x99\xb1\xa0\xe5q?\x8d\x10Yy2\xa4\x82\xbf\xd9\x81\xfe\x18\x13\xdd\xc6\xbf'
p1689
tp1690
bag1676
(g1677
(I0
tp1691
g1679
tp1692
Rp1693
(I1
(I4
tp1694
g1686
I00
S'\xa7\xf2.\xae\xdc\xdcq\xbfh\xc4\x85"\xeb\xff\xef?\x907\x84y\xfd\xbcN?\xa0\xe4\x8f\x0b\x03\xfa\x86\xbf'
p1695
tp1696
bag1676
(g1677
(I0
tp1697
g1679
tp1698
Rp1699
(I1
(I4
tp1700
g1686
I00
S'^\x94\xe3pL\xa6\x82?B\xe5\xaeC\x9aoM\xbf\xc2_73\xa8\xff\xef?\xa8|\x81]N\xe9\xb1?'
p1701
tp1702
bag1676
(g1677
(I0
tp1703
g1679
tp1704
Rp1705
(I1
(I4
tp1706
g1686
I00
S'\x00\x00\x00\x00\x00\x00\x00\x00\x00\x00\x00\x00\x00\x00\x00\x00\x00\x00\x00\x00\x00\x00\x00\x00\x00\x00\x00\x00\x00\x00\xf0?'
p1707
tp1708
basS'RLMR'
p1709
(lp1710
g3
(g4
g5
Ntp1711
Rp1712
(lp1713
g3
(g9
g5
Ntp1714
Rp1715
(lp1716
I11
ag3
(g13
g5
Ntp1717
Rp1718
(lp1719
I0
aI0
abaS'base_link'
p1720
abag3
(g18
g5
Ntp1721
Rp1722
(lp1723
g3
(g22
g5
Ntp1724
Rp1725
(lp1726
F0.6347810491514794
aF-0.21537103844277652
aF0.4788729053956491
abag3
(g26
g5
Ntp1727
Rp1728
(lp1729
F-0.003535106021627294
aF-0.1448431289263165
aF-0.07587118322291157
aF0.9865351157382112
abababag3
(g4
g5
Ntp1730
Rp1731
(lp1732
g1715
ag3
(g18
g5
Ntp1733
Rp1734
(lp1735
g3
(g22
g5
Ntp1736
Rp1737
(lp1738
cnumpy.core.multiarray
scalar
p1739
(g1683
(S'f8'
p1740
I0
I1
tp1741
Rp1742
(I3
S'<'
p1743
NNNI-1
I-1
I0
tp1744
bS'\xed\x1c\x06=a9\xe4?'
p1745
tp1746
Rp1747
ag1739
(g1742
S'\xfa\xdcf\xd2\x0b\x8b\xcb\xbf'
p1748
tp1749
Rp1750
ag1739
(g1742
S'\xfa\xfe\xeaB\xe3G\xdf?'
p1751
tp1752
Rp1753
abag3
(g26
g5
Ntp1754
Rp1755
(lp1756
g1739
(g1742
S'\xe7\x1f\xa0\xe9\xfc\x81x?'
p1757
tp1758
Rp1759
ag1739
(g1742
S'\xed\x8c\xc9\x95:@\xc7\xbf'
p1760
tp1761
Rp1762
ag1739
(g1742
S'\x03\x82\xdcR\xe1\xe8\xb2\xbf'
p1763
tp1764
Rp1765
ag1739
(g1742
S'H\xf4\xb5\x9a\xce`\xef?'
p1766
tp1767
Rp1768
abababag3
(g4
g5
Ntp1769
Rp1770
(lp1771
g1715
ag3
(g18
g5
Ntp1772
Rp1773
(lp1774
g3
(g22
g5
Ntp1775
Rp1776
(lp1777
g1739
(g1742
S'\xd3\xcf\x96\x16\xb9\x16\xe4?'
p1778
tp1779
Rp1780
ag1739
(g1742
S'\xf08\xc5]GD\xcc\xbf'
p1781
tp1782
Rp1783
ag1739
(g1742
S'm<R\x03\xb7\xd8\xdf?'
p1784
tp1785
Rp1786
abag3
(g26
g5
Ntp1787
Rp1788
(lp1789
g1739
(g1742
S'f\xa8\xb2\xba\xb6l\x98?'
p1790
tp1791
Rp1792
ag1739
(g1742
S'}3\xe0*M\xb6\xcb\xbf'
p1793
tp1794
Rp1795
ag1739
(g1742
S'MP\xe1}\xf7\x8b\xb7\xbf'
p1796
tp1797
Rp1798
ag1739
(g1742
S'Q\x95\x9a\xca\xbb\x17\xef?'
p1799
tp1800
Rp1801
abababag3
(g4
g5
Ntp1802
Rp1803
(lp1804
g1715
ag3
(g18
g5
Ntp1805
Rp1806
(lp1807
g3
(g22
g5
Ntp1808
Rp1809
(lp1810
g1739
(g1742
S'N_\x9cS\x15\xe7\xe3?'
p1811
tp1812
Rp1813
ag1739
(g1742
S'\xd0\xd8\xaa\x00v\xef\xcc\xbf'
p1814
tp1815
Rp1816
ag1739
(g1742
S'\x9a\x83\x92N\x8e(\xe0?'
p1817
tp1818
Rp1819
abag3
(g26
g5
Ntp1820
Rp1821
(lp1822
g1739
(g1742
S'T\\\x88\x7f\x88\xd7\xa3?'
p1823
tp1824
Rp1825
ag1739
(g1742
S'\xb3\x9a\xaf\x90\x95\x00\xd0\xbf'
p1826
tp1827
Rp1828
ag1739
(g1742
S'\x04\x8e\x06\x9dg\\\xbb\xbf'
p1829
tp1830
Rp1831
ag1739
(g1742
S'\xa8\x84\x97p\xed\xc4\xee?'
p1832
tp1833
Rp1834
abababag3
(g4
g5
Ntp1835
Rp1836
(lp1837
g1715
ag3
(g18
g5
Ntp1838
Rp1839
(lp1840
g3
(g22
g5
Ntp1841
Rp1842
(lp1843
g1739
(g1742
S'\x9a\xb6\xd0\xd7\xe9\xb7\xe3?'
p1844
tp1845
Rp1846
ag1739
(g1742
S'\xc1\xa9\xd9}z]\xcd\xbf'
p1847
tp1848
Rp1849
ag1739
(g1742
S'p\xb0jZ\x0es\xe0?'
p1850
tp1851
Rp1852
abag3
(g26
g5
Ntp1853
Rp1854
(lp1855
g1739
(g1742
S'\xb3<\x04\xa0Ox\xaa?'
p1856
tp1857
Rp1858
ag1739
(g1742
S'\xb66\xf3\x8f7y\xd2\xbf'
p1859
tp1860
Rp1861
ag1739
(g1742
S'\x83\xb8g\xe3\xd2\x03\xbe\xbf'
p1862
tp1863
Rp1864
ag1739
(g1742
S'i3\xfc\\\xbf\\\xee?'
p1865
tp1866
Rp1867
abababag3
(g4
g5
Ntp1868
Rp1869
(lp1870
g1715
ag3
(g18
g5
Ntp1871
Rp1872
(lp1873
g3
(g22
g5
Ntp1874
Rp1875
(lp1876
g1739
(g1742
S'\xb4m|5y\x85\xe3?'
p1877
tp1878
Rp1879
ag1739
(g1742
S'"\xe9K\xfa\xae\x86\xcd\xbf'
p1880
tp1881
Rp1882
ag1739
(g1742
S'\x88\xbf4\xd3\xd6\xb1\xe0?'
p1883
tp1884
Rp1885
abag3
(g26
g5
Ntp1886
Rp1887
(lp1888
g1739
(g1742
S'\xc4<h\x1c;\x83\xad?'
p1889
tp1890
Rp1891
ag1739
(g1742
S'G\x87\xc96\xfc\xad\xd4\xbf'
p1892
tp1893
Rp1894
ag1739
(g1742
S'\xe7l4O\x7f\x99\xbe\xbf'
p1895
tp1896
Rp1897
ag1739
(g1742
S'M>(C\xf8\xfb\xed?'
p1898
tp1899
Rp1900
abababag3
(g4
g5
Ntp1901
Rp1902
(lp1903
g1715
ag3
(g18
g5
Ntp1904
Rp1905
(lp1906
g3
(g22
g5
Ntp1907
Rp1908
(lp1909
g1739
(g1742
S'\xbb\xf4#\x84,U\xe3?'
p1910
tp1911
Rp1912
ag1739
(g1742
S'\xff\x1d\xba\x04\x98F\xcd\xbf'
p1913
tp1914
Rp1915
ag1739
(g1742
S'i~\x8f\x7f\xae\xf8\xe0?'
p1916
tp1917
Rp1918
abag3
(g26
g5
Ntp1919
Rp1920
(lp1921
g1739
(g1742
S'\x06\xb2\x07\x0c\xeee\xac?'
p1922
tp1923
Rp1924
ag1739
(g1742
S'\xf93\xda6\x0e\xf5\xd6\xbf'
p1925
tp1926
Rp1927
ag1739
(g1742
S'\xa5F\xbf\x81\x0b|\xbc\xbf'
p1928
tp1929
Rp1930
ag1739
(g1742
S'\xa5,v\x03\xb2\x9a\xed?'
p1931
tp1932
Rp1933
abababag3
(g4
g5
Ntp1934
Rp1935
(lp1936
g1715
ag3
(g18
g5
Ntp1937
Rp1938
(lp1939
g3
(g22
g5
Ntp1940
Rp1941
(lp1942
g1739
(g1742
S'~\x95]\xff\xbe!\xe3?'
p1943
tp1944
Rp1945
ag1739
(g1742
S'3\x0b\xa1\xe3\x1d\xa5\xcc\xbf'
p1946
tp1947
Rp1948
ag1739
(g1742
S'\xf9\xea\xce\x80!4\xe1?'
p1949
tp1950
Rp1951
abag3
(g26
g5
Ntp1952
Rp1953
(lp1954
g1739
(g1742
S'%\x9e\x8b\xf6\xcc\x1f\xa8?'
p1955
tp1956
Rp1957
ag1739
(g1742
S'(o\x0e\x88]\x13\xd9\xbf'
p1958
tp1959
Rp1960
ag1739
(g1742
S'\xc1\xd4}Y\x91V\xb8\xbf'
p1961
tp1962
Rp1963
ag1739
(g1742
S'\xd4\xf6\x0b\x0b\xbd>\xed?'
p1964
tp1965
Rp1966
abababag3
(g4
g5
Ntp1967
Rp1968
(lp1969
g1715
ag3
(g18
g5
Ntp1970
Rp1971
(lp1972
g3
(g22
g5
Ntp1973
Rp1974
(lp1975
g1739
(g1742
S'\x8e\xbd!n;\xe9\xe2?'
p1976
tp1977
Rp1978
ag1739
(g1742
S')R\x07R:\x05\xcc\xbf'
p1979
tp1980
Rp1981
ag1739
(g1742
S'\n\xd7\xaf\x0c\tr\xe1?'
p1982
tp1983
Rp1984
abag3
(g26
g5
Ntp1985
Rp1986
(lp1987
g1739
(g1742
S'\xd1p;\xd6eE\xa3?'
p1988
tp1989
Rp1990
ag1739
(g1742
S'\xde=\xee\xdf2=\xdb\xbf'
p1991
tp1992
Rp1993
ag1739
(g1742
S'\x12\xbb\xf4\xfb\xa2 \xb4\xbf'
p1994
tp1995
Rp1996
ag1739
(g1742
S'GU+|\x85\xd2\xec?'
p1997
tp1998
Rp1999
abababag3
(g4
g5
Ntp2000
Rp2001
(lp2002
g1715
ag3
(g18
g5
Ntp2003
Rp2004
(lp2005
g3
(g22
g5
Ntp2006
Rp2007
(lp2008
g1739
(g1742
S'>\x19p\xc1\xf4\xaa\xe2?'
p2009
tp2010
Rp2011
ag1739
(g1742
S"\xdc'z\xe9p\x8c\xcb\xbf"
p2012
tp2013
Rp2014
ag1739
(g1742
S'r\xeaU\xb1\xae\xa2\xe1?'
p2015
tp2016
Rp2017
abag3
(g26
g5
Ntp2018
Rp2019
(lp2020
g1739
(g1742
S'*d\x1c\x05\xd0_\x9f?'
p2021
tp2022
Rp2023
ag1739
(g1742
S'>\x12\xcd\xff\xf1L\xdd\xbf'
p2024
tp2025
Rp2026
ag1739
(g1742
S'\xacT\x06NK\x94\xb1\xbf'
p2027
tp2028
Rp2029
ag1739
(g1742
S'\xb1\xc2t\x14\xf4X\xec?'
p2030
tp2031
Rp2032
abababag3
(g4
g5
Ntp2033
Rp2034
(lp2035
g1715
ag3
(g18
g5
Ntp2036
Rp2037
(lp2038
g3
(g22
g5
Ntp2039
Rp2040
(lp2041
g1739
(g1742
S'\x0eIu\x0f\xd6f\xe2?'
p2042
tp2043
Rp2044
ag1739
(g1742
S';\xf5M\xad\xec \xcb\xbf'
p2045
tp2046
Rp2047
ag1739
(g1742
S'\xff\r\x8858\xd5\xe1?'
p2048
tp2049
Rp2050
abag3
(g26
g5
Ntp2051
Rp2052
(lp2053
g1739
(g1742
S'\xe2\xe7e\x08\xf1S\x96?'
p2054
tp2055
Rp2056
ag1739
(g1742
S'\x10\x93X\xdeZd\xdf\xbf'
p2057
tp2058
Rp2059
ag1739
(g1742
S')u\x9atv\x1e\xae\xbf'
p2060
tp2061
Rp2062
ag1739
(g1742
S')\x98\x04DR\xd0\xeb?'
p2063
tp2064
Rp2065
abababag3
(g4
g5
Ntp2066
Rp2067
(lp2068
g1715
ag3
(g18
g5
Ntp2069
Rp2070
(lp2071
g3
(g22
g5
Ntp2072
Rp2073
(lp2074
g1739
(g1742
S'\x02\x04V\xf2\xc3!\xe2?'
p2075
tp2076
Rp2077
ag1739
(g1742
S'\x07Z\x8c\x8cT\xc2\xca\xbf'
p2078
tp2079
Rp2080
ag1739
(g1742
S'\xc2,\xfe\xceY\x07\xe2?'
p2081
tp2082
Rp2083
abag3
(g26
g5
Ntp2084
Rp2085
(lp2086
g1739
(g1742
S'\xe4\xfc\xd62Zk\x84?'
p2087
tp2088
Rp2089
ag1739
(g1742
S'\xb1Ts\x96\xa5\x9d\xe0\xbf'
p2090
tp2091
Rp2092
ag1739
(g1742
S'\x02\x80\xf3)\xfeV\xa9\xbf'
p2093
tp2094
Rp2095
ag1739
(g1742
S'\xc7R\xce\xb0\xdeL\xeb?'
p2096
tp2097
Rp2098
abababag3
(g4
g5
Ntp2099
Rp2100
(lp2101
g1715
ag3
(g18
g5
Ntp2102
Rp2103
(lp2104
g3
(g22
g5
Ntp2105
Rp2106
(lp2107
g1739
(g1742
S':\xeb=\xa4\xdc\xc9\xe1?'
p2108
tp2109
Rp2110
ag1739
(g1742
S'M\x16\xeb\x88\x08\x12\xcb\xbf'
p2111
tp2112
Rp2113
ag1739
(g1742
S'A\xd7-\r\x00l\xe2?'
p2114
tp2115
Rp2116
abag3
(g26
g5
Ntp2117
Rp2118
(lp2119
g1739
(g1742
S'pxZJ\xb9\xf2\x90\xbf'
p2120
tp2121
Rp2122
ag1739
(g1742
S'\x91\xfc\xb2\xc0\xeeI\xe1\xbf'
p2123
tp2124
Rp2125
ag1739
(g1742
S'\n\xa4\xda\x94\xc7\xea\xa5\xbf'
p2126
tp2127
Rp2128
ag1739
(g1742
S'{H9\xac6\xe3\xea?'
p2129
tp2130
Rp2131
abababag3
(g4
g5
Ntp2132
Rp2133
(lp2134
g1715
ag3
(g18
g5
Ntp2135
Rp2136
(lp2137
g3
(g22
g5
Ntp2138
Rp2139
(lp2140
g1739
(g1742
S';\xcb\xe8.\xf1b\xe1?'
p2141
tp2142
Rp2143
ag1739
(g1742
S'\xbew\x1c\xf8\xe6\xde\xcb\xbf'
p2144
tp2145
Rp2146
ag1739
(g1742
S'}`\xb2m\x0c\xfa\xe2?'
p2147
tp2148
Rp2149
abag3
(g26
g5
Ntp2150
Rp2151
(lp2152
g1739
(g1742
S'JG\xf3\xca$>\xaa\xbf'
p2153
tp2154
Rp2155
ag1739
(g1742
S'\xf1s\nTn\xd6\xe1\xbf'
p2156
tp2157
Rp2158
ag1739
(g1742
S'\xb9\x1bn\x12\xed!\xa5\xbf'
p2159
tp2160
Rp2161
ag1739
(g1742
S'\xd6\x11\x19\xa3\xd1{\xea?'
p2162
tp2163
Rp2164
abababag3
(g4
g5
Ntp2165
Rp2166
(lp2167
g1715
ag3
(g18
g5
Ntp2168
Rp2169
(lp2170
g3
(g22
g5
Ntp2171
Rp2172
(lp2173
g1739
(g1742
S'\xca\xdc5c\xd0\\\xe1?'
p2174
tp2175
Rp2176
ag1739
(g1742
S'\xdai\xc5lc\xd3\xc9\xbf'
p2177
tp2178
Rp2179
ag1739
(g1742
S']\xac\x80\xa1,W\xe3?'
p2180
tp2181
Rp2182
abag3
(g26
g5
Ntp2183
Rp2184
(lp2185
g1739
(g1742
S'e\xe4.a\xee4\xb1\xbf'
p2186
tp2187
Rp2188
ag1739
(g1742
S'\x8d\x873\x13\xfc\x1f\xe2\xbf'
p2189
tp2190
Rp2191
ag1739
(g1742
S'\xb7,"\xe6%\xca\x96\xbf'
p2192
tp2193
Rp2194
ag1739
(g1742
S'\x91\x8d\xd6sJF\xea?'
p2195
tp2196
Rp2197
abababag3
(g4
g5
Ntp2198
Rp2199
(lp2200
g1715
ag3
(g18
g5
Ntp2201
Rp2202
(lp2203
g3
(g22
g5
Ntp2204
Rp2205
(lp2206
g1739
(g1742
S'\xe9R\xfa\x9e\x05\xf9\xe1?'
p2207
tp2208
Rp2209
ag1739
(g1742
S'\xc9\xa9\\\xb3\xe2\x93\xc7\xbf'
p2210
tp2211
Rp2212
ag1739
(g1742
S'EPm\xf2\xc4-\xe3?'
p2213
tp2214
Rp2215
abag3
(g26
g5
Ntp2216
Rp2217
(lp2218
g1739
(g1742
S'1\xd7\x98\x04\x18\x0e\xac\xbf'
p2219
tp2220
Rp2221
ag1739
(g1742
S'\x97\x94\xd0\x9b\xba\xdc\xe0\xbf'
p2222
tp2223
Rp2224
ag1739
(g1742
S"'\xe4\x90\xf7\xd8\x1ec\xbf"
p2225
tp2226
Rp2227
ag1739
(g1742
S'\xf6\xeb\xb2\xf2\xdd#\xeb?'
p2228
tp2229
Rp2230
abababag3
(g4
g5
Ntp2231
Rp2232
(lp2233
g1715
ag3
(g18
g5
Ntp2234
Rp2235
(lp2236
g3
(g22
g5
Ntp2237
Rp2238
(lp2239
g1739
(g1742
S'BK3w\xb0?\xe2?'
p2240
tp2241
Rp2242
ag1739
(g1742
S'M\x03\xc1\xe3\xd0\x8a\xc7\xbf'
p2243
tp2244
Rp2245
ag1739
(g1742
S'\xf2\xf98\xebL\x02\xe3?'
p2246
tp2247
Rp2248
abag3
(g26
g5
Ntp2249
Rp2250
(lp2251
g1739
(g1742
S'\xe5\xc5C\xc7\xd7\xa8\xab\xbf'
p2252
tp2253
Rp2254
ag1739
(g1742
S'\xb4\x92\x9d>\x00\xb6\xdf\xbf'
p2255
tp2256
Rp2257
ag1739
(g1742
S'A\x16nW\xff\xc1\\?'
p2258
tp2259
Rp2260
ag1739
(g1742
S'~\xd8(t\xec\xbd\xeb?'
p2261
tp2262
Rp2263
abababag3
(g4
g5
Ntp2264
Rp2265
(lp2266
g1715
ag3
(g18
g5
Ntp2267
Rp2268
(lp2269
g3
(g22
g5
Ntp2270
Rp2271
(lp2272
g1739
(g1742
S'\x90\x01\r\xe1\x8d\x82\xe2?'
p2273
tp2274
Rp2275
ag1739
(g1742
S'\x18\x98N\xecU?\xc6\xbf'
p2276
tp2277
Rp2278
ag1739
(g1742
S'\xdb\xb6\x02?\xde\xda\xe2?'
p2279
tp2280
Rp2281
abag3
(g26
g5
Ntp2282
Rp2283
(lp2284
g1739
(g1742
S'\xe0\x19W\xce\x01\x00\xa9\xbf'
p2285
tp2286
Rp2287
ag1739
(g1742
S'H\xdd\xf7"\xcd\xb4\xdd\xbf'
p2288
tp2289
Rp2290
ag1739
(g1742
S'?\x8e\xa2\t\xa4\xb0{\xbf'
p2291
tp2292
Rp2293
ag1739
(g1742
S'X\xd8z3\xd4L\xec?'
p2294
tp2295
Rp2296
abababag3
(g4
g5
Ntp2297
Rp2298
(lp2299
g1715
ag3
(g18
g5
Ntp2300
Rp2301
(lp2302
g3
(g22
g5
Ntp2303
Rp2304
(lp2305
g1739
(g1742
S'\xf7\x87M9\xab\xc2\xe2?'
p2306
tp2307
Rp2308
ag1739
(g1742
S'N\x15w\xf3\xebF\xc8\xbf'
p2309
tp2310
Rp2311
ag1739
(g1742
S'LL\x85Y\xfd\xac\xe2?'
p2312
tp2313
Rp2314
abag3
(g26
g5
Ntp2315
Rp2316
(lp2317
g1739
(g1742
S'\xd6\xff5\xf8g\x9c\xa7\xbf'
p2318
tp2319
Rp2320
ag1739
(g1742
S'V\x82\x1c%\xc8\xbf\xdb\xbf'
p2321
tp2322
Rp2323
ag1739
(g1742
S'f\xb7\xe0l\xb0\xc5\x8c\xbf'
p2324
tp2325
Rp2326
ag1739
(g1742
S't\x03"\xa1\\\xcb\xec?'
p2327
tp2328
Rp2329
abababag3
(g4
g5
Ntp2330
Rp2331
(lp2332
g1715
ag3
(g18
g5
Ntp2333
Rp2334
(lp2335
g3
(g22
g5
Ntp2336
Rp2337
(lp2338
g1739
(g1742
S'Az\x1c\x04\x00\x00\xe3?'
p2339
tp2340
Rp2341
ag1739
(g1742
S'\xcc))\x0eJ\x7f\xc8\xbf'
p2342
tp2343
Rp2344
ag1739
(g1742
S'|\x08>0\xb1q\xe2?'
p2345
tp2346
Rp2347
abag3
(g26
g5
Ntp2348
Rp2349
(lp2350
g1739
(g1742
S'\xaaM\xf8\xbb\xd5\xa6\xa6\xbf'
p2351
tp2352
Rp2353
ag1739
(g1742
S'\xea\x95\xbc3A\x96\xd9\xbf'
p2354
tp2355
Rp2356
ag1739
(g1742
S'\x14A\x15\n\xe1\xe7\x92\xbf'
p2357
tp2358
Rp2359
ag1739
(g1742
S'\xf2\x89 \x80\x8bJ\xed?'
p2360
tp2361
Rp2362
abababag3
(g4
g5
Ntp2363
Rp2364
(lp2365
g1715
ag3
(g18
g5
Ntp2366
Rp2367
(lp2368
g3
(g22
g5
Ntp2369
Rp2370
(lp2371
g1739
(g1742
S'&\x18\xe3\x00\xb3;\xe3?'
p2372
tp2373
Rp2374
ag1739
(g1742
S'\xab\x1e\x01H\x16\xa6\xc8\xbf'
p2375
tp2376
Rp2377
ag1739
(g1742
S'\xfb\x13RN\x97;\xe2?'
p2378
tp2379
Rp2380
abag3
(g26
g5
Ntp2381
Rp2382
(lp2383
g1739
(g1742
S'\xb5\xb2\xd0\xe21J\xa7\xbf'
p2384
tp2385
Rp2386
ag1739
(g1742
S'\xb30\x12t\x15x\xd7\xbf'
p2387
tp2388
Rp2389
ag1739
(g1742
S'\x14.\xdb\xbf/\\\x96\xbf'
p2390
tp2391
Rp2392
ag1739
(g1742
S'o\x0e:\x93\x1b\xba\xed?'
p2393
tp2394
Rp2395
abababag3
(g4
g5
Ntp2396
Rp2397
(lp2398
g1715
ag3
(g18
g5
Ntp2399
Rp2400
(lp2401
g3
(g22
g5
Ntp2402
Rp2403
(lp2404
g1739
(g1742
S'\xe2\xc7\x99\xd4\x84p\xe3?'
p2405
tp2406
Rp2407
ag1739
(g1742
S'\xc6\x80\x85\x99\xa4\xbb\xc8\xbf'
p2408
tp2409
Rp2410
ag1739
(g1742
S'\xa4\x9b\xfd\x18\xaf\xfc\xe1?'
p2411
tp2412
Rp2413
abag3
(g26
g5
Ntp2414
Rp2415
(lp2416
g1739
(g1742
S'@\xe4_\xac\x08\x92\xa9\xbf'
p2417
tp2418
Rp2419
ag1739
(g1742
S'k"0\x93`>\xd5\xbf'
p2420
tp2421
Rp2422
ag1739
(g1742
S'\xa47e\xeb\xb4\xca\x97\xbf'
p2423
tp2424
Rp2425
ag1739
(g1742
S'\x9b<\xef\xbeZ"\xee?'
p2426
tp2427
Rp2428
abababag3
(g4
g5
Ntp2429
Rp2430
(lp2431
g1715
ag3
(g18
g5
Ntp2432
Rp2433
(lp2434
g3
(g22
g5
Ntp2435
Rp2436
(lp2437
g1739
(g1742
S'\xba\x0fR5\x04\xa1\xe3?'
p2438
tp2439
Rp2440
ag1739
(g1742
S'\xd6\x07\xb77\xec\xc3\xc8\xbf'
p2441
tp2442
Rp2443
ag1739
(g1742
S'<\x1a5\xc1\xad\xba\xe1?'
p2444
tp2445
Rp2446
abag3
(g26
g5
Ntp2447
Rp2448
(lp2449
g1739
(g1742
S's\x0e\x14\x8a#_\xac\xbf'
p2450
tp2451
Rp2452
ag1739
(g1742
S'\xb8\\\xb11r\t\xd3\xbf'
p2453
tp2454
Rp2455
ag1739
(g1742
S'y\xca\xa5\xe7\x8eK\x98\xbf'
p2456
tp2457
Rp2458
ag1739
(g1742
S'\x8ax\xee\xc3\x99}\xee?'
p2459
tp2460
Rp2461
abababag3
(g4
g5
Ntp2462
Rp2463
(lp2464
g1715
ag3
(g18
g5
Ntp2465
Rp2466
(lp2467
g3
(g22
g5
Ntp2468
Rp2469
(lp2470
g1739
(g1742
S'~\xa4[=\x91\xce\xe3?'
p2471
tp2472
Rp2473
ag1739
(g1742
S'A\xb3d\xfe\x08\xc9\xc8\xbf'
p2474
tp2475
Rp2476
ag1739
(g1742
S'\xedH{VCu\xe1?'
p2477
tp2478
Rp2479
abag3
(g26
g5
Ntp2480
Rp2481
(lp2482
g1739
(g1742
S'\x05T\n\xea\xef\xdc\xaf\xbf'
p2483
tp2484
Rp2485
ag1739
(g1742
S'\xd3\xfef\x16D\xcb\xd0\xbf'
p2486
tp2487
Rp2488
ag1739
(g1742
S'\xc1\xc04\x904)\x98\xbf'
p2489
tp2490
Rp2491
ag1739
(g1742
S'\xf9[kI\x1b\xce\xee?'
p2492
tp2493
Rp2494
abababag3
(g4
g5
Ntp2495
Rp2496
(lp2497
g1715
ag3
(g18
g5
Ntp2498
Rp2499
(lp2500
g3
(g22
g5
Ntp2501
Rp2502
(lp2503
g1739
(g1742
S'\xb6\x8eR.\xb1\xf6\xe3?'
p2504
tp2505
Rp2506
ag1739
(g1742
S'\xb6~\x89oL\xb6\xc8\xbf'
p2507
tp2508
Rp2509
ag1739
(g1742
S'aa@\x06]*\xe1?'
p2510
tp2511
Rp2512
abag3
(g26
g5
Ntp2513
Rp2514
(lp2515
g1739
(g1742
S'\xcd\x800\xc5\x10o\xb2\xbf'
p2516
tp2517
Rp2518
ag1739
(g1742
S'\n\xa7q\xe3\x19\xfc\xcc\xbf'
p2519
tp2520
Rp2521
ag1739
(g1742
S'x\xa7>\x0f\\\x0f\x96\xbf'
p2522
tp2523
Rp2524
ag1739
(g1742
S'?\x06\xb6fj\x13\xef?'
p2525
tp2526
Rp2527
abababag3
(g4
g5
Ntp2528
Rp2529
(lp2530
g1715
ag3
(g18
g5
Ntp2531
Rp2532
(lp2533
g3
(g22
g5
Ntp2534
Rp2535
(lp2536
g1739
(g1742
S'\x83R\x8aFB\x1b\xe4?'
p2537
tp2538
Rp2539
ag1739
(g1742
S'\x89\x8f8!\x88|\xc8\xbf'
p2540
tp2541
Rp2542
ag1739
(g1742
S'W\x81\xc2\xbc\xa7\xe0\xe0?'
p2543
tp2544
Rp2545
abag3
(g26
g5
Ntp2546
Rp2547
(lp2548
g1739
(g1742
S'\x87\xd5\xcdQ\xfas\xb5\xbf'
p2549
tp2550
Rp2551
ag1739
(g1742
S'\x83\xc8^\x8eNv\xc8\xbf'
p2552
tp2553
Rp2554
ag1739
(g1742
S'\xe7\xd8-\xa7&\xe2\x90\xbf'
p2555
tp2556
Rp2557
ag1739
(g1742
S'5\xdc\x189\x83J\xef?'
p2558
tp2559
Rp2560
abababag3
(g4
g5
Ntp2561
Rp2562
(lp2563
g1715
ag3
(g18
g5
Ntp2564
Rp2565
(lp2566
g3
(g22
g5
Ntp2567
Rp2568
(lp2569
g1739
(g1742
S'v\x0e\x80\x9ez3\xe4?'
p2570
tp2571
Rp2572
ag1739
(g1742
S'\x99\x13\xf8\x8d\xab|\xc8\xbf'
p2573
tp2574
Rp2575
ag1739
(g1742
S']R\x83\xac\xf4\x90\xe0?'
p2576
tp2577
Rp2578
abag3
(g26
g5
Ntp2579
Rp2580
(lp2581
g1739
(g1742
S'\x9d\xa1\xc1\xbf(\x81\xb8\xbf'
p2582
tp2583
Rp2584
ag1739
(g1742
S'\x04\x13\x90\x8e\x9e\xec\xc3\xbf'
p2585
tp2586
Rp2587
ag1739
(g1742
S'\xe5%\xa2\xc2z1\x8b\xbf'
p2588
tp2589
Rp2590
ag1739
(g1742
S'\xd5\xd3+\x90Tu\xef?'
p2591
tp2592
Rp2593
abababag3
(g4
g5
Ntp2594
Rp2595
(lp2596
g1715
ag3
(g18
g5
Ntp2597
Rp2598
(lp2599
g3
(g22
g5
Ntp2600
Rp2601
(lp2602
g1739
(g1742
S'\x04\xbe\rZ+H\xe4?'
p2603
tp2604
Rp2605
ag1739
(g1742
S'\x80\xe0\xd8\xaf\x05(\xc9\xbf'
p2606
tp2607
Rp2608
ag1739
(g1742
S'C^}\xea\x83N\xe0?'
p2609
tp2610
Rp2611
abag3
(g26
g5
Ntp2612
Rp2613
(lp2614
g1739
(g1742
S'.<<\xea\xbb\xa2\xb9\xbf'
p2615
tp2616
Rp2617
ag1739
(g1742
S'Ddl\x8fPy\xbf\xbf'
p2618
tp2619
Rp2620
ag1739
(g1742
S'\xcc\xdfV\x0f\xc3\xd8\x9d\xbf'
p2621
tp2622
Rp2623
ag1739
(g1742
S'u\x84\x12\x06\xd5\x94\xef?'
p2624
tp2625
Rp2626
abababas.