(dp0
S'PREGRASP'
p1
(lp2
cnumpy.core.multiarray
_reconstruct
p3
(cnumpy
ndarray
p4
(I0
tp5
S'b'
p6
tp7
Rp8
(I1
(I4
tp9
cnumpy
dtype
p10
(S'f8'
p11
I0
I1
tp12
Rp13
(I3
S'<'
p14
NNNI-1
I-1
I0
tp15
bI00
S'\x98\x08\xa5\xb2\x88e\xef?\x94\xd2*\x8c\x7f\xce\xc7?\x1dSYD\xc7\xea\xaa?\t\xde\x81g\x05\xef\xbf\xbf'
p16
tp17
bag3
(g4
(I0
tp18
g6
tp19
Rp20
(I1
(I4
tp21
g13
I00
S'\x8a\xeeR<`\xe2\xc6\xbfS\xbaH\xe2\x18A\xef?\x106\x8e\x03\x1ff\xbe\xbf\xc0\xa1\xc9l\x1d\xb2\x8b?'
p22
tp23
bag3
(g4
(I0
tp24
g6
tp25
Rp26
(I1
(I4
tp27
g13
I00
S'T\xf8\xdc\xa5}\xcc\xb2\xbf\xf7"\xe1\xb6gk\xbb?\x96d\xbe/\xa1\xba\xef?J\xb4\xc1)\xf6v\xca?'
p28
tp29
bag3
(g4
(I0
tp30
g6
tp31
Rp32
(I1
(I4
tp33
g13
I00
S'\x00\x00\x00\x00\x00\x00\x00\x00\x00\x00\x00\x00\x00\x00\x00\x00\x00\x00\x00\x00\x00\x00\x00\x00\x00\x00\x00\x00\x00\x00\xf0?'
p34
tp35
basS'RAEE'
p36
(lp37
ccopy_reg
_reconstructor
p38
(cgeometry_msgs.msg._PoseStamped
PoseStamped
p39
c__builtin__
object
p40
Ntp41
Rp42
(lp43
g38
(cstd_msgs.msg._Header
Header
p44
g40
Ntp45
Rp46
(lp47
I0
ag38
(cgenpy.rostime
Time
p48
g40
Ntp49
Rp50
(lp51
I1565741613
aI104212341
abaS'/base_link'
p52
abag38
(cgeometry_msgs.msg._Pose
Pose
p53
g40
Ntp54
Rp55
(lp56
g38
(cgeometry_msgs.msg._Point
Point
p57
g40
Ntp58
Rp59
(lp60
F0.4500501358107674
aF-0.31536112966149554
aF0.4269489495526281
abag38
(cgeometry_msgs.msg._Quaternion
Quaternion
p61
g40
Ntp62
Rp63
(lp64
F-0.12993156937098876
aF-0.03478516133845182
aF0.7123103708695211
aF0.6888553660843292
abababag38
(g39
g40
Ntp65
Rp66
(lp67
g38
(g44
g40
Ntp68
Rp69
(lp70
I0
ag38
(g48
g40
Ntp71
Rp72
(lp73
I1565741635
aI787725991
abaS'/base_link'
p74
abag38
(g53
g40
Ntp75
Rp76
(lp77
g38
(g57
g40
Ntp78
Rp79
(lp80
F0.2943395927414714
aF-0.29548135159922995
aF0.478299201862253
abag38
(g61
g40
Ntp81
Rp82
(lp83
F0.10033234665264597
aF-0.014683606533570828
aF0.6499418754909823
aF0.7531888012959335
abababag38
(g39
g40
Ntp84
Rp85
(lp86
g38
(g44
g40
Ntp87
Rp88
(lp89
I0
ag38
(g48
g40
Ntp90
Rp91
(lp92
I1565741646
aI186224006
abaS'/base_link'
p93
abag38
(g53
g40
Ntp94
Rp95
(lp96
g38
(g57
g40
Ntp97
Rp98
(lp99
F0.4344436612958764
aF-0.3184100916202758
aF0.48607588701161886
abag38
(g61
g40
Ntp100
Rp101
(lp102
F-0.07984860754025105
aF-0.07020863199080066
aF0.6960847994335296
aF0.7100428859339738
abababasS'RAEF'
p103
(lp104
g38
(g39
g40
Ntp105
Rp106
(lp107
g38
(g44
g40
Ntp108
Rp109
(lp110
I58
ag38
(g48
g40
Ntp111
Rp112
(lp113
I1565992812
aI323218107
abaS'/base_link'
p114
abag38
(g53
g40
Ntp115
Rp116
(lp117
g38
(g57
g40
Ntp118
Rp119
(lp120
cnumpy.core.multiarray
scalar
p121
(g10
(S'f8'
p122
I0
I1
tp123
Rp124
(I3
S'<'
p125
NNNI-1
I-1
I0
tp126
bS'B\x07PN\xaf\x1a\xdf?'
p127
tp128
Rp129
ag121
(g124
S'4\xc97\x83\xad\xee\xd2\xbf'
p130
tp131
Rp132
ag121
(g124
S'X\xd99\x88\xac\xbd\xda?'
p133
tp134
Rp135
abag38
(g61
g40
Ntp136
Rp137
(lp138
g121
(g124
S':\x8d\xd3P\xa1Kv?'
p139
tp140
Rp141
ag121
(g124
S'\xc0\xf4\xb5\xeb\x90Rs\xbf'
p142
tp143
Rp144
ag121
(g124
S'\xef\x91rb\x83\xc4\xe5?'
p145
tp146
Rp147
ag121
(g124
S'\x9fd\xda"_t\xe7?'
p148
tp149
Rp150
abababag38
(g39
g40
Ntp151
Rp152
(lp153
g109
ag38
(g53
g40
Ntp154
Rp155
(lp156
g38
(g57
g40
Ntp157
Rp158
(lp159
g121
(g124
S'f\x96^\x15[Q\xdf?'
p160
tp161
Rp162
ag121
(g124
S'\xc2\x1a~{\x9f\x82\xd3\xbf'
p163
tp164
Rp165
ag121
(g124
S'=\x8e\x95\xca\x7f\xe7\xdb?'
p166
tp167
Rp168
abag38
(g61
g40
Ntp169
Rp170
(lp171
g121
(g124
S'\x19_\x15?\x0e\xc9\x90\xbf'
p172
tp173
Rp174
ag121
(g124
S'\xba\xa7\xb5\xd2\x1ak\xa1?'
p175
tp176
Rp177
ag121
(g124
S'\xfeM<\x83\xa5\x1e\xe5?'
p178
tp179
Rp180
ag121
(g124
S' \xea\xa0\xff\xa6\x02\xe8?'
p181
tp182
Rp183
abababag38
(g39
g40
Ntp184
Rp185
(lp186
g109
ag38
(g53
g40
Ntp187
Rp188
(lp189
g38
(g57
g40
Ntp190
Rp191
(lp192
g121
(g124
S'\xc0\xe9\xb3\xdfk\xf5\xdf?'
p193
tp194
Rp195
ag121
(g124
S'\xbdg#c\xba\x1f\xd2\xbf'
p196
tp197
Rp198
ag121
(g124
S'\x15\xd9?.\xbc\x19\xde?'
p199
tp200
Rp201
abag38
(g61
g40
Ntp202
Rp203
(lp204
g121
(g124
S'\x11\xc4\xfd\x03))`?'
p205
tp206
Rp207
ag121
(g124
S'\xb7\xd0\x02\xfb\x86\x94\xb7?'
p208
tp209
Rp210
ag121
(g124
S'\xaa\x93\x1c<\x86}\xe7?'
p211
tp212
Rp213
ag121
(g124
S'\xfe\xa8[\xeb\x82\x87\xe5?'
p214
tp215
Rp216
abababag38
(g39
g40
Ntp217
Rp218
(lp219
g109
ag38
(g53
g40
Ntp220
Rp221
(lp222
g38
(g57
g40
Ntp223
Rp224
(lp225
g121
(g124
S'>\xbb\x9b\x08\x8a\xe0\xdf?'
p226
tp227
Rp228
ag121
(g124
S')\t\xca\xbb\x8f\xbd\xd2\xbf'
p229
tp230
Rp231
ag121
(g124
S'9\x90e\xcdr\xde\xde?'
p232
tp233
Rp234
abag38
(g61
g40
Ntp235
Rp236
(lp237
g121
(g124
S'R\xdd&K\xd14Z\xbf'
p238
tp239
Rp240
ag121
(g124
S'_P6\xf6\x85\xf8\xbd?'
p241
tp242
Rp243
ag121
(g124
S'\x83\xe4V6a\x13\xe8?'
p244
tp245
Rp246
ag121
(g124
S'\xcbEyq\x85\xbe\xe4?'
p247
tp248
Rp249
abababag38
(g39
g40
Ntp250
Rp251
(lp252
g109
ag38
(g53
g40
Ntp253
Rp254
(lp255
g38
(g57
g40
Ntp256
Rp257
(lp258
g121
(g124
S'\x98\xc4\xaf2\x0e\x8b\xe0?'
p259
tp260
Rp261
ag121
(g124
S'\x1eM\xefXv\xc7\xd2\xbf'
p262
tp263
Rp264
ag121
(g124
S'C_r\x13 a\xdf?'
p265
tp266
Rp267
abag38
(g61
g40
Ntp268
Rp269
(lp270
g121
(g124
S'8&\xdf\x19e\xf6\xa5\xbf'
p271
tp272
Rp273
ag121
(g124
S'\x1a\x19\xf6\x8b5\xa6\xc0?'
p274
tp275
Rp276
ag121
(g124
S'\x1d\xa1C\xae\xf7o\xe7?'
p277
tp278
Rp279
ag121
(g124
S'\xc9nt\x9c\x8cW\xe5?'
p280
tp281
Rp282
abababag38
(g39
g40
Ntp283
Rp284
(lp285
g109
ag38
(g53
g40
Ntp286
Rp287
(lp288
g38
(g57
g40
Ntp289
Rp290
(lp291
g121
(g124
S'r\x961\x7f-\xaf\xe0?'
p292
tp293
Rp294
ag121
(g124
S'\x9f\xbc\xebc0\xc1\xd2\xbf'
p295
tp296
Rp297
ag121
(g124
S'+\x0e\x01\xff\x89l\xdf?'
p298
tp299
Rp300
abag38
(g61
g40
Ntp301
Rp302
(lp303
g121
(g124
S'\x01wG\xf8\x901\xac\xbf'
p304
tp305
Rp306
ag121
(g124
S'k\xe7B\xec\x839\xc0?'
p307
tp308
Rp309
ag121
(g124
S'\x8ef\xd6EQ\x99\xe6?'
p310
tp311
Rp312
ag121
(g124
S'\xa8yt\xcdW8\xe6?'
p313
tp314
Rp315
abababag38
(g39
g40
Ntp316
Rp317
(lp318
g109
ag38
(g53
g40
Ntp319
Rp320
(lp321
g38
(g57
g40
Ntp322
Rp323
(lp324
g121
(g124
S'\x10 \xed\xa1\x03:\xe0?'
p325
tp326
Rp327
ag121
(g124
S'Z\x94n\xc8\xa5\xdd\xd2\xbf'
p328
tp329
Rp330
ag121
(g124
S'\x07/\xeb\xfa\xaa\x1e\xdf?'
p331
tp332
Rp333
abag38
(g61
g40
Ntp334
Rp335
(lp336
g121
(g124
S'\xd17\x82\xac\xc9\x1d\xaf\xbf'
p337
tp338
Rp339
ag121
(g124
S'a\x98\xc4/h\xf0\xc4?'
p340
tp341
Rp342
ag121
(g124
S'\xcev,Q\xea)\xe6?'
p343
tp344
Rp345
ag121
(g124
S'\xae\xc2\x9f\xf0de\xe6?'
p346
tp347
Rp348
abababag38
(g39
g40
Ntp349
Rp350
(lp351
g109
ag38
(g53
g40
Ntp352
Rp353
(lp354
g38
(g57
g40
Ntp355
Rp356
(lp357
g121
(g124
S']q\xc6?\xb3\xd1\xe0?'
p358
tp359
Rp360
ag121
(g124
S'z\xe2V\xaa\x90\x89\xd0\xbf'
p361
tp362
Rp363
ag121
(g124
S'\xd9\x04`\x9f{)\xdf?'
p364
tp365
Rp366
abag38
(g61
g40
Ntp367
Rp368
(lp369
g121
(g124
S'\xda\xcf\xbc\xd2:\x19\xae\xbf'
p370
tp371
Rp372
ag121
(g124
S'*\x8a\x9a`\xa9_\xc4?'
p373
tp374
Rp375
ag121
(g124
S'`\xe0\xb8\x00D\xed\xe6?'
p376
tp377
Rp378
ag121
(g124
S'\x8e\xcd^\xb0S\xa7\xe5?'
p379
tp380
Rp381
abababag38
(g39
g40
Ntp382
Rp383
(lp384
g109
ag38
(g53
g40
Ntp385
Rp386
(lp387
g38
(g57
g40
Ntp388
Rp389
(lp390
g121
(g124
S'g\xa6p.7D\xe2?'
p391
tp392
Rp393
ag121
(g124
S'l\x12\xad\x91\x8c[\xcc\xbf'
p394
tp395
Rp396
ag121
(g124
S'\xb5\xad\xb3\xaf\xcc\x9e\xe1?'
p397
tp398
Rp399
abag38
(g61
g40
Ntp400
Rp401
(lp402
g121
(g124
S'~k\x17\xbdZ\xc7\xc4\xbf'
p403
tp404
Rp405
ag121
(g124
S'\xc1t\xa5\xe6\x04\x1d\xd0?'
p406
tp407
Rp408
ag121
(g124
S'\xccy\xe6\xc7\x15\xad\xe7?'
p409
tp410
Rp411
ag121
(g124
S'\xcd|\xde\x80\x8aF\xe3?'
p412
tp413
Rp414
abababag38
(g39
g40
Ntp415
Rp416
(lp417
g109
ag38
(g53
g40
Ntp418
Rp419
(lp420
g38
(g57
g40
Ntp421
Rp422
(lp423
g121
(g124
S'\x81\xcf\xeb\x08\xce\x04\xe3?'
p424
tp425
Rp426
ag121
(g124
S'\x1fue\xfdv\xe1\xb9\xbf'
p427
tp428
Rp429
ag121
(g124
S'\xa2)"{\xc4\x7f\xe6?'
p430
tp431
Rp432
abag38
(g61
g40
Ntp433
Rp434
(lp435
g121
(g124
S'\xa6<\x1d4\xea\xc7\xd5\xbf'
p436
tp437
Rp438
ag121
(g124
S'\xc8\xef\xc7\x1d\xf7a\xda?'
p439
tp440
Rp441
ag121
(g124
S'\xab5\xe2\xd8\xb6"\xe7?'
p442
tp443
Rp444
ag121
(g124
S'\x92\xb0\xd1Jb\x02\xdc?'
p445
tp446
Rp447
abababag38
(g39
g40
Ntp448
Rp449
(lp450
g109
ag38
(g53
g40
Ntp451
Rp452
(lp453
g38
(g57
g40
Ntp454
Rp455
(lp456
g121
(g124
S'\x80\xf1\x95?\x00+\xe3?'
p457
tp458
Rp459
ag121
(g124
S'\xc8\xf7i2\xcd\xd4\xb7\xbf'
p460
tp461
Rp462
ag121
(g124
S'\x0e\xe6\x16Q\xc6\x94\xe6?'
p463
tp464
Rp465
abag38
(g61
g40
Ntp466
Rp467
(lp468
g121
(g124
S'\x03\xe7\xc5>\xa5E\xd7\xbf'
p469
tp470
Rp471
ag121
(g124
S'\xc5\xdb\x86\xfb\xa2^\xd9?'
p472
tp473
Rp474
ag121
(g124
S't\x91M\xb8A\x9c\xe6?'
p475
tp476
Rp477
ag121
(g124
S'%\xb2 \x99\xfdl\xdd?'
p478
tp479
Rp480
abababag38
(g39
g40
Ntp481
Rp482
(lp483
g109
ag38
(g53
g40
Ntp484
Rp485
(lp486
g38
(g57
g40
Ntp487
Rp488
(lp489
g121
(g124
S'\xeb3:O\xeb\xc5\xe2?'
p490
tp491
Rp492
ag121
(g124
S'\x8c\x88#\xfc\xdd[\xb6\xbf'
p493
tp494
Rp495
ag121
(g124
S'\xc16R\xecPD\xe6?'
p496
tp497
Rp498
abag38
(g61
g40
Ntp499
Rp500
(lp501
g121
(g124
S'\xf3+P<\xaa\t\xd6\xbf'
p502
tp503
Rp504
ag121
(g124
S'H;\x82e\t\x0c\xd9?'
p505
tp506
Rp507
ag121
(g124
S'\xe349\x8d\xb4\x8c\xe6?'
p508
tp509
Rp510
ag121
(g124
S'\x1b\xd9\xfdfw\xce\xde?'
p511
tp512
Rp513
abababag38
(g39
g40
Ntp514
Rp515
(lp516
g109
ag38
(g53
g40
Ntp517
Rp518
(lp519
g38
(g57
g40
Ntp520
Rp521
(lp522
g121
(g124
S'\xf1\xe1L\xbe \xfc\xe0?'
p523
tp524
Rp525
ag121
(g124
S"Z\xe6'z@\xbd\xc8\xbf"
p526
tp527
Rp528
ag121
(g124
S'-`\x88\xad\xdcb\xe3?'
p529
tp530
Rp531
abag38
(g61
g40
Ntp532
Rp533
(lp534
g121
(g124
S'\x87\xfeQ:v\xed\xc6\xbf'
p535
tp536
Rp537
ag121
(g124
S'\t\x10]\x1d\xcc\xf4\xd5?'
p538
tp539
Rp540
ag121
(g124
S'\x1bxSX\xf8j\xe4?'
p541
tp542
Rp543
ag121
(g124
S'M\xbd\x00\xfc\x15M\xe5?'
p544
tp545
Rp546
abababag38
(g39
g40
Ntp547
Rp548
(lp549
g109
ag38
(g53
g40
Ntp550
Rp551
(lp552
g38
(g57
g40
Ntp553
Rp554
(lp555
g121
(g124
S'n\xdf\x14\x18\xdc>\xe1?'
p556
tp557
Rp558
ag121
(g124
S'\x03\x8d\x07\xe2a\x8a\xcc\xbf'
p559
tp560
Rp561
ag121
(g124
S'\xe9\xeb\xa5|\xab\xa2\xe2?'
p562
tp563
Rp564
abag38
(g61
g40
Ntp565
Rp566
(lp567
g121
(g124
S'\xf2\xf9\xce\x90\x1f\xde\xc4\xbf'
p568
tp569
Rp570
ag121
(g124
S"'K\x1c\x1f9\xd6\xd2?"
p571
tp572
Rp573
ag121
(g124
S'\xc2\x8c\xf7\x0b\xf1g\xe4?'
p574
tp575
Rp576
ag121
(g124
S'\x8a\nX\xbau,\xe6?'
p577
tp578
Rp579
abababag38
(g39
g40
Ntp580
Rp581
(lp582
g109
ag38
(g53
g40
Ntp583
Rp584
(lp585
g38
(g57
g40
Ntp586
Rp587
(lp588
g121
(g124
S'f\x1c\xc0\xe1\x00h\xdf?'
p589
tp590
Rp591
ag121
(g124
S'\xa5\xc0k\xbe\xc4B\xd1\xbf'
p592
tp593
Rp594
ag121
(g124
S'#$Z\xe3\xa9\xc4\xdd?'
p595
tp596
Rp597
abag38
(g61
g40
Ntp598
Rp599
(lp600
g121
(g124
S'\xe9\xec\xda\xb7Z\xee\xa7\xbf'
p601
tp602
Rp603
ag121
(g124
S'|}:\xef?{\xc6?'
p604
tp605
Rp606
ag121
(g124
S'F\xfe6\xde\x9b\x17\xe4?'
p607
tp608
Rp609
ag121
(g124
S'\x12\xad{6\xa07\xe8?'
p610
tp611
Rp612
abababag38
(g39
g40
Ntp613
Rp614
(lp615
g109
ag38
(g53
g40
Ntp616
Rp617
(lp618
g38
(g57
g40
Ntp619
Rp620
(lp621
g121
(g124
S'\x98\x15"F\xdd\xe6\xde?'
p622
tp623
Rp624
ag121
(g124
S'rg\xda\xf0c\x04\xd2\xbf'
p625
tp626
Rp627
ag121
(g124
S'\x0b\x1dj\x12\x948\xdc?'
p628
tp629
Rp630
abag38
(g61
g40
Ntp631
Rp632
(lp633
g121
(g124
S'*\x06\xcf4\x8f,\x9a\xbf'
p634
tp635
Rp636
ag121
(g124
S'-\x17*\xf4\x8f\xec\xbd?'
p637
tp638
Rp639
ag121
(g124
S':\x1df\xa2X\xc5\xe3?'
p640
tp641
Rp642
ag121
(g124
S'\x11\xcc rb\xde\xe8?'
p643
tp644
Rp645
abababag38
(g39
g40
Ntp646
Rp647
(lp648
g109
ag38
(g53
g40
Ntp649
Rp650
(lp651
g38
(g57
g40
Ntp652
Rp653
(lp654
g121
(g124
S'\xde\x7f\x98Q\x07<\xde?'
p655
tp656
Rp657
ag121
(g124
S'\x05`M\xce\xf9\xd7\xd1\xbf'
p658
tp659
Rp660
ag121
(g124
S'\xa1%W"j|\xdc?'
p661
tp662
Rp663
abag38
(g61
g40
Ntp664
Rp665
(lp666
g121
(g124
S's\xf7\xc2\x9f\xdb\xd6C\xbf'
p667
tp668
Rp669
ag121
(g124
S'\xb8\xb1 2H\x8a\xbe?'
p670
tp671
Rp672
ag121
(g124
S'\xdb\x91\x90\xb4\x0b\xa3\xe4?'
p673
tp674
Rp675
ag121
(g124
S'\xdc\xfd\xeak\x1b(\xe8?'
p676
tp677
Rp678
abababag38
(g39
g40
Ntp679
Rp680
(lp681
g109
ag38
(g53
g40
Ntp682
Rp683
(lp684
g38
(g57
g40
Ntp685
Rp686
(lp687
g121
(g124
S',(s/#\xd5\xdd?'
p688
tp689
Rp690
ag121
(g124
S'\xfd\xc7yO\xff\xb5\xd1\xbf'
p691
tp692
Rp693
ag121
(g124
S'\x8e\xde\x1e\x91(\xe8\xdc?'
p694
tp695
Rp696
abag38
(g61
g40
Ntp697
Rp698
(lp699
g121
(g124
S'\x94\xe4\xc0u\xech\x99?'
p700
tp701
Rp702
ag121
(g124
S'\x94\x9dp\xad\x985\xbd?'
p703
tp704
Rp705
ag121
(g124
S'kX\xf7 \xf6K\xe5?'
p706
tp707
Rp708
ag121
(g124
S'Q\xebo\x0b\n\x97\xe7?'
p709
tp710
Rp711
abababag38
(g39
g40
Ntp712
Rp713
(lp714
g109
ag38
(g53
g40
Ntp715
Rp716
(lp717
g38
(g57
g40
Ntp718
Rp719
(lp720
g121
(g124
S'\xc6\xc56g\xbb\x98\xde?'
p721
tp722
Rp723
ag121
(g124
S'\t\xc19\x98\xeb\xd5\xd1\xbf'
p724
tp725
Rp726
ag121
(g124
S'H7{B0\xc5\xdc?'
p727
tp728
Rp729
abag38
(g61
g40
Ntp730
Rp731
(lp732
g121
(g124
S'L\x19\xf9\\x\x01o?'
p733
tp734
Rp735
ag121
(g124
S'\xa1\xd4\x8c/4\x9d\xb9?'
p736
tp737
Rp738
ag121
(g124
S'\xb2\xcf\xb0Q\xbaE\xe4?'
p739
tp740
Rp741
ag121
(g124
S'M\x04\xb0\x18 \x8d\xe8?'
p742
tp743
Rp744
abababasS'LLAD'
p745
(lp746
g38
(g39
g40
Ntp747
Rp748
(lp749
g38
(g44
g40
Ntp750
Rp751
(lp752
I0
ag38
(g48
g40
Ntp753
Rp754
(lp755
I147
aI289000000
abaS'/base_link'
p756
abag38
(g53
g40
Ntp757
Rp758
(lp759
g38
(g57
g40
Ntp760
Rp761
(lp762
F0.3242550067062675
aF-0.0752096288977306
aF0.6723931973391564
abag38
(g61
g40
Ntp763
Rp764
(lp765
F-0.10158967737293953
aF-0.4880238708183467
aF-0.04478163608662168
aF0.8657406332338485
abababag38
(g39
g40
Ntp766
Rp767
(lp768
g38
(g44
g40
Ntp769
Rp770
(lp771
I0
ag38
(g48
g40
Ntp772
Rp773
(lp774
I147
aI605000000
abaS'/base_link'
p775
abag38
(g53
g40
Ntp776
Rp777
(lp778
g38
(g57
g40
Ntp779
Rp780
(lp781
F0.3259824779937879
aF-0.0894982020194488
aF0.670857158852045
abag38
(g61
g40
Ntp782
Rp783
(lp784
F-0.07891696419626473
aF-0.4738857603024828
aF-0.08783723172571958
aF0.8726333821642085
abababag38
(g39
g40
Ntp785
Rp786
(lp787
g38
(g44
g40
Ntp788
Rp789
(lp790
I0
ag38
(g48
g40
Ntp791
Rp792
(lp793
I147
aI870000000
abaS'/base_link'
p794
abag38
(g53
g40
Ntp795
Rp796
(lp797
g38
(g57
g40
Ntp798
Rp799
(lp800
F0.32724558289768546
aF-0.10374701415805977
aF0.6679565970902805
abag38
(g61
g40
Ntp801
Rp802
(lp803
F-0.05561940411462338
aF-0.4588458174380306
aF-0.13098010699220422
aF0.8770468683473366
abababag38
(g39
g40
Ntp804
Rp805
(lp806
g38
(g44
g40
Ntp807
Rp808
(lp809
I0
ag38
(g48
g40
Ntp810
Rp811
(lp812
I148
aI144000000
abaS'/base_link'
p813
abag38
(g53
g40
Ntp814
Rp815
(lp816
g38
(g57
g40
Ntp817
Rp818
(lp819
F0.3242859838003253
aF-0.12254974842079891
aF0.6648555334591117
abag38
(g61
g40
Ntp820
Rp821
(lp822
F-0.04442615772337283
aF-0.4464711538193561
aF-0.17422670932082943
aF0.8765471345434802
abababag38
(g39
g40
Ntp823
Rp824
(lp825
g38
(g44
g40
Ntp826
Rp827
(lp828
I0
ag38
(g48
g40
Ntp829
Rp830
(lp831
I148
aI472000000
abaS'/base_link'
p832
abag38
(g53
g40
Ntp833
Rp834
(lp835
g38
(g57
g40
Ntp836
Rp837
(lp838
F0.31687964779920547
aF-0.14455293238003186
aF0.662480016033392
abag38
(g61
g40
Ntp839
Rp840
(lp841
F-0.04414811091055323
aF-0.43714481383275167
aF-0.21847148368074584
aF0.8713355076321014
abababag38
(g39
g40
Ntp842
Rp843
(lp844
g38
(g44
g40
Ntp845
Rp846
(lp847
I0
ag38
(g48
g40
Ntp848
Rp849
(lp850
I148
aI719000000
abaS'/base_link'
p851
abag38
(g53
g40
Ntp852
Rp853
(lp854
g38
(g57
g40
Ntp855
Rp856
(lp857
F0.3062124812698351
aF-0.1671990469250358
aF0.6611253946192307
abag38
(g61
g40
Ntp858
Rp859
(lp860
F-0.05132945377854931
aF-0.4299968492782758
aF-0.2598939895578584
aF0.8630892833173468
abababag38
(g39
g40
Ntp861
Rp862
(lp863
g38
(g44
g40
Ntp864
Rp865
(lp866
I0
ag38
(g48
g40
Ntp867
Rp868
(lp869
I148
aI979000000
abaS'/base_link'
p870
abag38
(g53
g40
Ntp871
Rp872
(lp873
g38
(g57
g40
Ntp874
Rp875
(lp876
F0.290670568717006
aF-0.19151714884686266
aF0.6600071732438215
abag38
(g61
g40
Ntp877
Rp878
(lp879
F-0.06542949487200521
aF-0.42546230244865046
aF-0.30266551399071334
aF0.8503495734323765
abababag38
(g39
g40
Ntp880
Rp881
(lp882
g38
(g44
g40
Ntp883
Rp884
(lp885
I0
ag38
(g48
g40
Ntp886
Rp887
(lp888
I149
aI295000000
abaS'/base_link'
p889
abag38
(g53
g40
Ntp890
Rp891
(lp892
g38
(g57
g40
Ntp893
Rp894
(lp895
F0.26392470833726095
aF-0.19134082239051659
aF0.7048779396486139
abag38
(g61
g40
Ntp896
Rp897
(lp898
F-0.15239829004026254
aF-0.4395469921840055
aF-0.30446511442960006
aF0.8311884244563131
abababag38
(g39
g40
Ntp899
Rp900
(lp901
g38
(g44
g40
Ntp902
Rp903
(lp904
I0
ag38
(g48
g40
Ntp905
Rp906
(lp907
I149
aI548000000
abaS'/base_link'
p908
abag38
(g53
g40
Ntp909
Rp910
(lp911
g38
(g57
g40
Ntp912
Rp913
(lp914
F0.2547888360876731
aF-0.1770367921591456
aF0.736322195188193
abag38
(g61
g40
Ntp915
Rp916
(lp917
F-0.19874516165068268
aF-0.4463784561698715
aF-0.2927725994180726
aF0.821906831470472
abababag38
(g39
g40
Ntp918
Rp919
(lp920
g38
(g44
g40
Ntp921
Rp922
(lp923
I0
ag38
(g48
g40
Ntp924
Rp925
(lp926
I149
aI867000000
abaS'/base_link'
p927
abag38
(g53
g40
Ntp928
Rp929
(lp930
g38
(g57
g40
Ntp931
Rp932
(lp933
F0.24449448059150497
aF-0.15920553893432451
aF0.7695520647393732
abag38
(g61
g40
Ntp934
Rp935
(lp936
F-0.24821069926004233
aF-0.4514309159408269
aF-0.28456396726849886
aF0.808470732579776
abababag38
(g39
g40
Ntp937
Rp938
(lp939
g38
(g44
g40
Ntp940
Rp941
(lp942
I0
ag38
(g48
g40
Ntp943
Rp944
(lp945
I150
aI153000000
abaS'/base_link'
p946
abag38
(g53
g40
Ntp947
Rp948
(lp949
g38
(g57
g40
Ntp950
Rp951
(lp952
F0.25614976551351
aF-0.1526950419165987
aF0.7797394156631052
abag38
(g61
g40
Ntp953
Rp954
(lp955
F-0.30123572880900856
aF-0.3735519336288226
aF-0.28395559861719205
aF0.8301115627342058
abababag38
(g39
g40
Ntp956
Rp957
(lp958
g38
(g44
g40
Ntp959
Rp960
(lp961
I0
ag38
(g48
g40
Ntp962
Rp963
(lp964
I150
aI466000000
abaS'/base_link'
p965
abag38
(g53
g40
Ntp966
Rp967
(lp968
g38
(g57
g40
Ntp969
Rp970
(lp971
F0.2681074465428905
aF-0.15475460642152933
aF0.7761943749234691
abag38
(g61
g40
Ntp972
Rp973
(lp974
F-0.3086679599280034
aF-0.3432513052833463
aF-0.27791177234897485
aF0.8424177578404998
abababag38
(g39
g40
Ntp975
Rp976
(lp977
g38
(g44
g40
Ntp978
Rp979
(lp980
I0
ag38
(g48
g40
Ntp981
Rp982
(lp983
I150
aI800000000
abaS'/base_link'
p984
abag38
(g53
g40
Ntp985
Rp986
(lp987
g38
(g57
g40
Ntp988
Rp989
(lp990
F0.28282251522823687
aF-0.15395366985684655
aF0.7754153927847609
abag38
(g61
g40
Ntp991
Rp992
(lp993
F-0.31322560148606515
aF-0.3258786822212188
aF-0.2640425917907162
aF0.8520412647095771
abababag38
(g39
g40
Ntp994
Rp995
(lp996
g38
(g44
g40
Ntp997
Rp998
(lp999
I0
ag38
(g48
g40
Ntp1000
Rp1001
(lp1002
I151
aI172000000
abaS'/base_link'
p1003
abag38
(g53
g40
Ntp1004
Rp1005
(lp1006
g38
(g57
g40
Ntp1007
Rp1008
(lp1009
F0.2985309216447236
aF-0.1510041748187076
aF0.7770080541787233
abag38
(g61
g40
Ntp1010
Rp1011
(lp1012
F-0.3174875195151416
aF-0.3154488975565585
aF-0.24656970296426003
aF0.8595912107290249
abababag38
(g39
g40
Ntp1013
Rp1014
(lp1015
g38
(g44
g40
Ntp1016
Rp1017
(lp1018
I0
ag38
(g48
g40
Ntp1019
Rp1020
(lp1021
I151
aI526000000
abaS'/base_link'
p1022
abag38
(g53
g40
Ntp1023
Rp1024
(lp1025
g38
(g57
g40
Ntp1026
Rp1027
(lp1028
F0.31678114702114657
aF-0.1446546802425548
aF0.7812094618801452
abag38
(g61
g40
Ntp1029
Rp1030
(lp1031
F-0.3216115022024056
aF-0.3135313977789396
aF-0.22211318721705664
aF0.8654073239360625
abababag38
(g39
g40
Ntp1032
Rp1033
(lp1034
g38
(g44
g40
Ntp1035
Rp1036
(lp1037
I0
ag38
(g48
g40
Ntp1038
Rp1039
(lp1040
I151
aI857000000
abaS'/base_link'
p1041
abag38
(g53
g40
Ntp1042
Rp1043
(lp1044
g38
(g57
g40
Ntp1045
Rp1046
(lp1047
F0.3342038836337245
aF-0.13672641687184886
aF0.7867618290433642
abag38
(g61
g40
Ntp1048
Rp1049
(lp1050
F-0.3254099847380313
aF-0.3166947675149228
aF-0.19715611958442533
aF0.8688741166428396
abababag38
(g39
g40
Ntp1051
Rp1052
(lp1053
g38
(g44
g40
Ntp1054
Rp1055
(lp1056
I0
ag38
(g48
g40
Ntp1057
Rp1058
(lp1059
I152
aI234000000
abaS'/base_link'
p1060
abag38
(g53
g40
Ntp1061
Rp1062
(lp1063
g38
(g57
g40
Ntp1064
Rp1065
(lp1066
F0.3516613302107991
aF-0.1266055433925425
aF0.7939160152856458
abag38
(g61
g40
Ntp1067
Rp1068
(lp1069
F-0.3293004508267149
aF-0.32330950468433184
aF-0.1697199628175277
aF0.8707624885623584
abababag38
(g39
g40
Ntp1070
Rp1071
(lp1072
g38
(g44
g40
Ntp1073
Rp1074
(lp1075
I0
ag38
(g48
g40
Ntp1076
Rp1077
(lp1078
I152
aI677000000
abaS'/base_link'
p1079
abag38
(g53
g40
Ntp1080
Rp1081
(lp1082
g38
(g57
g40
Ntp1083
Rp1084
(lp1085
F0.3679257760848931
aF-0.11592511619842628
aF0.8001277403185021
abag38
(g61
g40
Ntp1086
Rp1087
(lp1088
F-0.33322104000809155
aF-0.3280289057903992
aF-0.14469343370858906
aF0.8720232713084539
abababag38
(g39
g40
Ntp1089
Rp1090
(lp1091
g38
(g44
g40
Ntp1092
Rp1093
(lp1094
I0
ag38
(g48
g40
Ntp1095
Rp1096
(lp1097
I153
aI3000000
abaS'/base_link'
p1098
abag38
(g53
g40
Ntp1099
Rp1100
(lp1101
g38
(g57
g40
Ntp1102
Rp1103
(lp1104
F0.381480859520412
aF-0.10819957483939185
aF0.8018023429048444
abag38
(g61
g40
Ntp1105
Rp1106
(lp1107
F-0.341837627663466
aF-0.3182371242267931
aF-0.12645875845887924
aF0.8751459029706492
abababasS'RLAB'
p1108
(lp1109
g38
(g39
g40
Ntp1110
Rp1111
(lp1112
g38
(g44
g40
Ntp1113
Rp1114
(lp1115
I0
ag38
(g48
g40
Ntp1116
Rp1117
(lp1118
I1627
aI33000000
abaS'/base_link'
p1119
abag38
(g53
g40
Ntp1120
Rp1121
(lp1122
g38
(g57
g40
Ntp1123
Rp1124
(lp1125
F0.3608732962143377
aF-0.05555982006840394
aF0.5720916165585321
abag38
(g61
g40
Ntp1126
Rp1127
(lp1128
F-0.05707103541645489
aF-0.026534082402433275
aF-0.22724457120075695
aF0.9718018029656761
abababag38
(g39
g40
Ntp1129
Rp1130
(lp1131
g38
(g44
g40
Ntp1132
Rp1133
(lp1134
I0
ag38
(g48
g40
Ntp1135
Rp1136
(lp1137
I1627
aI529000000
abaS'/base_link'
p1138
abag38
(g53
g40
Ntp1139
Rp1140
(lp1141
g38
(g57
g40
Ntp1142
Rp1143
(lp1144
F0.3572756353919946
aF-0.058441748428288164
aF0.5872096742383004
abag38
(g61
g40
Ntp1145
Rp1146
(lp1147
F-0.034277185198742496
aF-0.06095755217257355
aF-0.23332387059744303
aF0.9698810353942419
abababag38
(g39
g40
Ntp1148
Rp1149
(lp1150
g38
(g44
g40
Ntp1151
Rp1152
(lp1153
I0
ag38
(g48
g40
Ntp1154
Rp1155
(lp1156
I1627
aI563000000
abaS'/base_link'
p1157
abag38
(g53
g40
Ntp1158
Rp1159
(lp1160
g38
(g57
g40
Ntp1161
Rp1162
(lp1163
F0.3555547363317792
aF-0.05889312817950859
aF0.5944582353447072
abag38
(g61
g40
Ntp1164
Rp1165
(lp1166
F0.0023682154086625985
aF-0.09409209221762617
aF-0.23400621554762677
aF0.967668414707727
abababag38
(g39
g40
Ntp1167
Rp1168
(lp1169
g38
(g44
g40
Ntp1170
Rp1171
(lp1172
I0
ag38
(g48
g40
Ntp1173
Rp1174
(lp1175
I1627
aI590000000
abaS'/base_link'
p1176
abag38
(g53
g40
Ntp1177
Rp1178
(lp1179
g38
(g57
g40
Ntp1180
Rp1181
(lp1182
F0.35020679839868435
aF-0.0613342942376926
aF0.6130846297764138
abag38
(g61
g40
Ntp1183
Rp1184
(lp1185
F0.017982591512010104
aF-0.12901591678336502
aF-0.2376682887828893
aF0.9625722331991886
abababag38
(g39
g40
Ntp1186
Rp1187
(lp1188
g38
(g44
g40
Ntp1189
Rp1190
(lp1191
I0
ag38
(g48
g40
Ntp1192
Rp1193
(lp1194
I1627
aI642000000
abaS'/base_link'
p1195
abag38
(g53
g40
Ntp1196
Rp1197
(lp1198
g38
(g57
g40
Ntp1199
Rp1200
(lp1201
F0.3398666265169269
aF-0.06381617866408548
aF0.6462105595873668
abag38
(g61
g40
Ntp1202
Rp1203
(lp1204
F0.0026936907956960727
aF-0.16429586268459478
aF-0.24215151366116935
aF0.9562229122784218
abababag38
(g39
g40
Ntp1205
Rp1206
(lp1207
g38
(g44
g40
Ntp1208
Rp1209
(lp1210
I0
ag38
(g48
g40
Ntp1211
Rp1212
(lp1213
I1627
aI697000000
abaS'/base_link'
p1214
abag38
(g53
g40
Ntp1215
Rp1216
(lp1217
g38
(g57
g40
Ntp1218
Rp1219
(lp1220
F0.33325094004244254
aF-0.06475279342270159
aF0.6627876137086037
abag38
(g61
g40
Ntp1221
Rp1222
(lp1223
F0.02112409855896871
aF-0.19897753559852108
aF-0.2428795882674313
aF0.9491950370657514
abababag38
(g39
g40
Ntp1224
Rp1225
(lp1226
g38
(g44
g40
Ntp1227
Rp1228
(lp1229
I0
ag38
(g48
g40
Ntp1230
Rp1231
(lp1232
I1627
aI771000000
abaS'/base_link'
p1233
abag38
(g53
g40
Ntp1234
Rp1235
(lp1236
g38
(g57
g40
Ntp1237
Rp1238
(lp1239
F0.32546036442239545
aF-0.06472667521977005
aF0.681759907968572
abag38
(g61
g40
Ntp1240
Rp1241
(lp1242
F0.03359684895052275
aF-0.2338424877580389
aF-0.24095126283209287
aF0.9413455431452081
abababag38
(g39
g40
Ntp1243
Rp1244
(lp1245
g38
(g44
g40
Ntp1246
Rp1247
(lp1248
I0
ag38
(g48
g40
Ntp1249
Rp1250
(lp1251
I1627
aI832000000
abaS'/base_link'
p1252
abag38
(g53
g40
Ntp1253
Rp1254
(lp1255
g38
(g57
g40
Ntp1256
Rp1257
(lp1258
F0.31569640649751834
aF-0.06452440060092099
aF0.7030666970889875
abag38
(g61
g40
Ntp1259
Rp1260
(lp1261
F0.03908739832937194
aF-0.26773463187599394
aF-0.23970164912628242
aF0.9323805347561733
abababag38
(g39
g40
Ntp1262
Rp1263
(lp1264
g38
(g44
g40
Ntp1265
Rp1266
(lp1267
I0
ag38
(g48
g40
Ntp1268
Rp1269
(lp1270
I1627
aI894000000
abaS'/base_link'
p1271
abag38
(g53
g40
Ntp1272
Rp1273
(lp1274
g38
(g57
g40
Ntp1275
Rp1276
(lp1277
F0.30426587132783744
aF-0.06270961112378977
aF0.726403592961532
abag38
(g61
g40
Ntp1278
Rp1279
(lp1280
F0.041798288855593835
aF-0.30273623344851364
aF-0.23669309759026613
aF0.9222689702897285
abababag38
(g39
g40
Ntp1281
Rp1282
(lp1283
g38
(g44
g40
Ntp1284
Rp1285
(lp1286
I0
ag38
(g48
g40
Ntp1287
Rp1288
(lp1289
I1627
aI976000000
abaS'/base_link'
p1290
abag38
(g53
g40
Ntp1291
Rp1292
(lp1293
g38
(g57
g40
Ntp1294
Rp1295
(lp1296
F0.2912608364816133
aF-0.05888119957078518
aF0.7510186727459243
abag38
(g61
g40
Ntp1297
Rp1298
(lp1299
F0.038593159413602286
aF-0.33667115514793033
aF-0.23252501971547204
aF0.9116442379262614
abababag38
(g39
g40
Ntp1300
Rp1301
(lp1302
g38
(g44
g40
Ntp1303
Rp1304
(lp1305
I0
ag38
(g48
g40
Ntp1306
Rp1307
(lp1308
I1628
aI46000000
abaS'/base_link'
p1309
abag38
(g53
g40
Ntp1310
Rp1311
(lp1312
g38
(g57
g40
Ntp1313
Rp1314
(lp1315
F0.2785915493553028
aF-0.05509274006890953
aF0.7726347122028343
abag38
(g61
g40
Ntp1316
Rp1317
(lp1318
F0.04108898964717477
aF-0.3703419403795609
aF-0.22668690449231768
aF0.8998730963071221
abababag38
(g39
g40
Ntp1319
Rp1320
(lp1321
g38
(g44
g40
Ntp1322
Rp1323
(lp1324
I0
ag38
(g48
g40
Ntp1325
Rp1326
(lp1327
I1628
aI159000000
abaS'/base_link'
p1328
abag38
(g53
g40
Ntp1329
Rp1330
(lp1331
g38
(g57
g40
Ntp1332
Rp1333
(lp1334
F0.29092097202719114
aF-0.05861732508059317
aF0.7515890079373211
abag38
(g61
g40
Ntp1335
Rp1336
(lp1337
F0.038372236925845786
aF-0.3369661733083928
aF-0.23272527700788254
aF0.9114934530323349
abababag38
(g39
g40
Ntp1338
Rp1339
(lp1340
g38
(g44
g40
Ntp1341
Rp1342
(lp1343
I0
ag38
(g48
g40
Ntp1344
Rp1345
(lp1346
I1628
aI189000000
abaS'/base_link'
p1347
abag38
(g53
g40
Ntp1348
Rp1349
(lp1350
g38
(g57
g40
Ntp1351
Rp1352
(lp1353
F0.30180961418850527
aF-0.06142134150831252
aF0.7321590265349168
abag38
(g61
g40
Ntp1354
Rp1355
(lp1356
F0.032369702227196206
aF-0.30463681632946893
aF-0.23819323904819195
aF0.9216358247084901
abababag38
(g39
g40
Ntp1357
Rp1358
(lp1359
g38
(g44
g40
Ntp1360
Rp1361
(lp1362
I0
ag38
(g48
g40
Ntp1363
Rp1364
(lp1365
I1628
aI251000000
abaS'/base_link'
p1366
abag38
(g53
g40
Ntp1367
Rp1368
(lp1369
g38
(g57
g40
Ntp1370
Rp1371
(lp1372
F0.31300463641481446
aF-0.0635758018810176
aF0.7099610881499272
abag38
(g61
g40
Ntp1373
Rp1374
(lp1375
F0.027394057086734005
aF-0.2695863590441911
aF-0.24125804508158408
aF0.9318622839975002
abababag38
(g39
g40
Ntp1376
Rp1377
(lp1378
g38
(g44
g40
Ntp1379
Rp1380
(lp1381
I0
ag38
(g48
g40
Ntp1382
Rp1383
(lp1384
I1628
aI315000000
abaS'/base_link'
p1385
abag38
(g53
g40
Ntp1386
Rp1387
(lp1388
g38
(g57
g40
Ntp1389
Rp1390
(lp1391
F0.3240475446975692
aF-0.06463742461256018
aF0.6861416821693224
abag38
(g61
g40
Ntp1392
Rp1393
(lp1394
F0.026342213565702988
aF-0.23481664261881374
aF-0.24246203099744632
aF0.9409460110220355
abababag38
(g39
g40
Ntp1395
Rp1396
(lp1397
g38
(g44
g40
Ntp1398
Rp1399
(lp1400
I0
ag38
(g48
g40
Ntp1401
Rp1402
(lp1403
I1628
aI337000000
abaS'/base_link'
p1404
abag38
(g53
g40
Ntp1405
Rp1406
(lp1407
g38
(g57
g40
Ntp1408
Rp1409
(lp1410
F0.333471299087638
aF-0.06503115901427875
aF0.6614590563111821
abag38
(g61
g40
Ntp1411
Rp1412
(lp1413
F0.024637941924804924
aF-0.19932122549970346
aF-0.24308651090153705
aF0.9489852312342502
abababag38
(g39
g40
Ntp1414
Rp1415
(lp1416
g38
(g44
g40
Ntp1417
Rp1418
(lp1419
I0
ag38
(g48
g40
Ntp1420
Rp1421
(lp1422
I1628
aI376000000
abaS'/base_link'
p1423
abag38
(g53
g40
Ntp1424
Rp1425
(lp1426
g38
(g57
g40
Ntp1427
Rp1428
(lp1429
F0.34281075050367094
aF-0.06382905131344213
aF0.6362396451683754
abag38
(g61
g40
Ntp1430
Rp1431
(lp1432
F0.021580987849292545
aF-0.16278745735480812
aF-0.24131673212897511
aF0.9564521626751636
abababag38
(g39
g40
Ntp1433
Rp1434
(lp1435
g38
(g44
g40
Ntp1436
Rp1437
(lp1438
I0
ag38
(g48
g40
Ntp1439
Rp1440
(lp1441
I1628
aI447000000
abaS'/base_link'
p1442
abag38
(g53
g40
Ntp1443
Rp1444
(lp1445
g38
(g57
g40
Ntp1446
Rp1447
(lp1448
F0.35117084547140826
aF-0.061394410589444365
aF0.6102294521161361
abag38
(g61
g40
Ntp1449
Rp1450
(lp1451
F0.019804627035360525
aF-0.126411604143375
aF-0.2369788356882055
aF0.963051875301508
abababag38
(g39
g40
Ntp1452
Rp1453
(lp1454
g38
(g44
g40
Ntp1455
Rp1456
(lp1457
I0
ag38
(g48
g40
Ntp1458
Rp1459
(lp1460
I1628
aI504000000
abaS'/base_link'
p1461
abag38
(g53
g40
Ntp1462
Rp1463
(lp1464
g38
(g57
g40
Ntp1465
Rp1466
(lp1467
F0.3578397762991971
aF-0.05766887710948358
aF0.5855796636693484
abag38
(g61
g40
Ntp1468
Rp1469
(lp1470
F0.017503284715984894
aF-0.09163912949303828
aF-0.23212974769862987
aF0.9682002299128418
abababag38
(g39
g40
Ntp1471
Rp1472
(lp1473
g38
(g44
g40
Ntp1474
Rp1475
(lp1476
I0
ag38
(g48
g40
Ntp1477
Rp1478
(lp1479
I1628
aI571000000
abaS'/base_link'
p1480
abag38
(g53
g40
Ntp1481
Rp1482
(lp1483
g38
(g57
g40
Ntp1484
Rp1485
(lp1486
F0.3636426394605364
aF-0.053090274077262474
aF0.5607040473967868
abag38
(g61
g40
Ntp1487
Rp1488
(lp1489
F0.01384128343309311
aF-0.056126703581115635
aF-0.2257787006911283
aF0.9724619223045539
abababag38
(g39
g40
Ntp1490
Rp1491
(lp1492
g38
(g44
g40
Ntp1493
Rp1494
(lp1495
I0
ag38
(g48
g40
Ntp1496
Rp1497
(lp1498
I1628
aI778000000
abaS'/base_link'
p1499
abag38
(g53
g40
Ntp1500
Rp1501
(lp1502
g38
(g57
g40
Ntp1503
Rp1504
(lp1505
F0.34844093630094475
aF-0.0622692441813464
aF0.6201139326905816
abag38
(g61
g40
Ntp1506
Rp1507
(lp1508
F-0.04994658544557199
aF-0.09481205886763067
aF-0.2412812106373085
aF0.964520289827541
abababag38
(g39
g40
Ntp1509
Rp1510
(lp1511
g38
(g44
g40
Ntp1512
Rp1513
(lp1514
I0
ag38
(g48
g40
Ntp1515
Rp1516
(lp1517
I1628
aI834000000
abaS'/base_link'
p1518
abag38
(g53
g40
Ntp1519
Rp1520
(lp1521
g38
(g57
g40
Ntp1522
Rp1523
(lp1524
F0.3349111500456592
aF-0.06309110985500489
aF0.6628429525489673
abag38
(g61
g40
Ntp1525
Rp1526
(lp1527
F-0.08114776955801252
aF-0.1316437627902445
aF-0.2508298966850491
aF0.9555989337285559
abababag38
(g39
g40
Ntp1528
Rp1529
(lp1530
g38
(g44
g40
Ntp1531
Rp1532
(lp1533
I0
ag38
(g48
g40
Ntp1534
Rp1535
(lp1536
I1628
aI892000000
abaS'/base_link'
p1537
abag38
(g53
g40
Ntp1538
Rp1539
(lp1540
g38
(g57
g40
Ntp1541
Rp1542
(lp1543
F0.31768674248228557
aF-0.06224972178590879
aF0.7050214316736367
abag38
(g61
g40
Ntp1544
Rp1545
(lp1546
F-0.11395143750025886
aF-0.16775012847748655
aF-0.26333793318435894
aF0.9431479720773414
abababag38
(g39
g40
Ntp1547
Rp1548
(lp1549
g38
(g44
g40
Ntp1550
Rp1551
(lp1552
I0
ag38
(g48
g40
Ntp1553
Rp1554
(lp1555
I1628
aI929000000
abaS'/base_link'
p1556
abag38
(g53
g40
Ntp1557
Rp1558
(lp1559
g38
(g57
g40
Ntp1560
Rp1561
(lp1562
F0.2990858597669046
aF-0.056452666830049195
aF0.7454572914790069
abag38
(g61
g40
Ntp1563
Rp1564
(lp1565
F-0.14557128317442486
aF-0.203446521894846
aF-0.2721034766370266
aF0.9291814743342037
abababag38
(g39
g40
Ntp1566
Rp1567
(lp1568
g38
(g44
g40
Ntp1569
Rp1570
(lp1571
I0
ag38
(g48
g40
Ntp1572
Rp1573
(lp1574
I1628
aI964000000
abaS'/base_link'
p1575
abag38
(g53
g40
Ntp1576
Rp1577
(lp1578
g38
(g57
g40
Ntp1579
Rp1580
(lp1581
F0.29468706834641145
aF-0.05454614067633718
aF0.7540695081162004
abag38
(g61
g40
Ntp1582
Rp1583
(lp1584
F-0.1123950741380373
aF-0.2393746067367554
aF-0.2652752214194235
aF0.9271980381018958
abababag38
(g39
g40
Ntp1585
Rp1586
(lp1587
g38
(g44
g40
Ntp1588
Rp1589
(lp1590
I0
ag38
(g48
g40
Ntp1591
Rp1592
(lp1593
I1628
aI986000000
abaS'/base_link'
p1594
abag38
(g53
g40
Ntp1595
Rp1596
(lp1597
g38
(g57
g40
Ntp1598
Rp1599
(lp1600
F0.2908074744348321
aF-0.054213689085304745
aF0.759849666417637
abag38
(g61
g40
Ntp1601
Rp1602
(lp1603
F-0.07427171098107303
aF-0.27435572197319513
aF-0.25667411113159955
aF0.9237591955933723
abababag38
(g39
g40
Ntp1604
Rp1605
(lp1606
g38
(g44
g40
Ntp1607
Rp1608
(lp1609
I0
ag38
(g48
g40
Ntp1610
Rp1611
(lp1612
I1629
aI118000000
abaS'/base_link'
p1613
abag38
(g53
g40
Ntp1614
Rp1615
(lp1616
g38
(g57
g40
Ntp1617
Rp1618
(lp1619
F0.32482222693159063
aF-0.06507185946878587
aF0.6837700376285714
abag38
(g61
g40
Ntp1620
Rp1621
(lp1622
F0.03092886383616552
aF-0.23476602468886199
aF-0.2414629467196938
aF0.9410759610121995
abababag38
(g39
g40
Ntp1623
Rp1624
(lp1625
g38
(g44
g40
Ntp1626
Rp1627
(lp1628
I0
ag38
(g48
g40
Ntp1629
Rp1630
(lp1631
I1629
aI169000000
abaS'/base_link'
p1632
abag38
(g53
g40
Ntp1633
Rp1634
(lp1635
g38
(g57
g40
Ntp1636
Rp1637
(lp1638
F0.3397554530563415
aF-0.06509703037437746
aF0.6424732288679704
abag38
(g61
g40
Ntp1639
Rp1640
(lp1641
F0.0626092699843352
aF-0.19794568610393173
aF-0.23865343603850125
aF0.9486527932451837
abababag38
(g39
g40
Ntp1642
Rp1643
(lp1644
g38
(g44
g40
Ntp1645
Rp1646
(lp1647
I0
ag38
(g48
g40
Ntp1648
Rp1649
(lp1650
I1629
aI233000000
abaS'/base_link'
p1651
abag38
(g53
g40
Ntp1652
Rp1653
(lp1654
g38
(g57
g40
Ntp1655
Rp1656
(lp1657
F0.3530012373798574
aF-0.06073131214794403
aF0.5988360675949929
abag38
(g61
g40
Ntp1658
Rp1659
(lp1660
F0.09668358271334838
aF-0.15972894302641977
aF-0.2336725814625015
aF0.9542201393106438
abababasS'LLAB'
p1661
(lp1662
g38
(g39
g40
Ntp1663
Rp1664
(lp1665
g38
(g44
g40
Ntp1666
Rp1667
(lp1668
I0
ag38
(g48
g40
Ntp1669
Rp1670
(lp1671
I153
aI788000000
abaS'/base_link'
p1672
abag38
(g53
g40
Ntp1673
Rp1674
(lp1675
g38
(g57
g40
Ntp1676
Rp1677
(lp1678
F0.323946495137192
aF-0.07562484741810088
aF0.6725520557223986
abag38
(g61
g40
Ntp1679
Rp1680
(lp1681
F-0.10252263712646358
aF-0.48769685581870187
aF-0.046444081250184316
aF0.8657273433466302
abababag38
(g39
g40
Ntp1682
Rp1683
(lp1684
g38
(g44
g40
Ntp1685
Rp1686
(lp1687
I0
ag38
(g48
g40
Ntp1688
Rp1689
(lp1690
I154
aI196000000
abaS'/base_link'
p1691
abag38
(g53
g40
Ntp1692
Rp1693
(lp1694
g38
(g57
g40
Ntp1695
Rp1696
(lp1697
F0.31836909761754933
aF-0.11247192118669004
aF0.6767332634044252
abag38
(g61
g40
Ntp1698
Rp1699
(lp1700
F-0.103944459249164
aF-0.48838097125227237
aF-0.04815361453295971
aF0.8650784968530295
abababag38
(g39
g40
Ntp1701
Rp1702
(lp1703
g38
(g44
g40
Ntp1704
Rp1705
(lp1706
I0
ag38
(g48
g40
Ntp1707
Rp1708
(lp1709
I154
aI527000000
abaS'/base_link'
p1710
abag38
(g53
g40
Ntp1711
Rp1712
(lp1713
g38
(g57
g40
Ntp1714
Rp1715
(lp1716
F0.31108043032424687
aF-0.14682576247063295
aF0.6817687421813369
abag38
(g61
g40
Ntp1717
Rp1718
(lp1719
F-0.10313430207431139
aF-0.4878690034260261
aF-0.047142411832248064
aF0.8655199271180182
abababag38
(g39
g40
Ntp1720
Rp1721
(lp1722
g38
(g44
g40
Ntp1723
Rp1724
(lp1725
I0
ag38
(g48
g40
Ntp1726
Rp1727
(lp1728
I154
aI986000000
abaS'/base_link'
p1729
abag38
(g53
g40
Ntp1730
Rp1731
(lp1732
g38
(g57
g40
Ntp1733
Rp1734
(lp1735
F0.3187525261681118
aF-0.1551701350343783
aF0.6927308367419894
abag38
(g61
g40
Ntp1736
Rp1737
(lp1738
F-0.09881720939266568
aF-0.4867673537374184
aF-0.04504574190100233
aF0.8667546271003722
abababag38
(g39
g40
Ntp1739
Rp1740
(lp1741
g38
(g44
g40
Ntp1742
Rp1743
(lp1744
I0
ag38
(g48
g40
Ntp1745
Rp1746
(lp1747
I155
aI314000000
abaS'/base_link'
p1748
abag38
(g53
g40
Ntp1749
Rp1750
(lp1751
g38
(g57
g40
Ntp1752
Rp1753
(lp1754
F0.33042129251871544
aF-0.1559956997964801
aF0.7056670488867979
abag38
(g61
g40
Ntp1755
Rp1756
(lp1757
F-0.09601962548630848
aF-0.4866179320437402
aF-0.04133758010449406
aF0.867337549173358
abababag38
(g39
g40
Ntp1758
Rp1759
(lp1760
g38
(g44
g40
Ntp1761
Rp1762
(lp1763
I0
ag38
(g48
g40
Ntp1764
Rp1765
(lp1766
I155
aI662000000
abaS'/base_link'
p1767
abag38
(g53
g40
Ntp1768
Rp1769
(lp1770
g38
(g57
g40
Ntp1771
Rp1772
(lp1773
F0.34140200076047034
aF-0.15650003412200425
aF0.7190293693139344
abag38
(g61
g40
Ntp1774
Rp1775
(lp1776
F-0.09343737336507339
aF-0.4859687404442996
aF-0.03948821130506532
aF0.8680694221878474
abababag38
(g39
g40
Ntp1777
Rp1778
(lp1779
g38
(g44
g40
Ntp1780
Rp1781
(lp1782
I0
ag38
(g48
g40
Ntp1783
Rp1784
(lp1785
I156
aI16000000
abaS'/base_link'
p1786
abag38
(g53
g40
Ntp1787
Rp1788
(lp1789
g38
(g57
g40
Ntp1790
Rp1791
(lp1792
F0.3523685584831117
aF-0.15664633948104795
aF0.7337851581030285
abag38
(g61
g40
Ntp1793
Rp1794
(lp1795
F-0.0920383111572379
aF-0.48558981044063504
aF-0.03777103556515644
aF0.8685072447296495
abababag38
(g39
g40
Ntp1796
Rp1797
(lp1798
g38
(g44
g40
Ntp1799
Rp1800
(lp1801
I0
ag38
(g48
g40
Ntp1802
Rp1803
(lp1804
I156
aI348000000
abaS'/base_link'
p1805
abag38
(g53
g40
Ntp1806
Rp1807
(lp1808
g38
(g57
g40
Ntp1809
Rp1810
(lp1811
F0.36194026580229
aF-0.1564492167303604
aF0.7479802164157126
abag38
(g61
g40
Ntp1812
Rp1813
(lp1814
F-0.09183034476817477
aF-0.48553717188356743
aF-0.03658631434614294
aF0.8686093967380449
abababag38
(g39
g40
Ntp1815
Rp1816
(lp1817
g38
(g44
g40
Ntp1818
Rp1819
(lp1820
I0
ag38
(g48
g40
Ntp1821
Rp1822
(lp1823
I156
aI604000000
abaS'/base_link'
p1824
abag38
(g53
g40
Ntp1825
Rp1826
(lp1827
g38
(g57
g40
Ntp1828
Rp1829
(lp1830
F0.3716511396604923
aF-0.1557549977370658
aF0.7644991172799345
abag38
(g61
g40
Ntp1831
Rp1832
(lp1833
F-0.09276762175343917
aF-0.4857016541453918
aF-0.0360320350000008
aF0.8684409962504072
abababag38
(g39
g40
Ntp1834
Rp1835
(lp1836
g38
(g44
g40
Ntp1837
Rp1838
(lp1839
I0
ag38
(g48
g40
Ntp1840
Rp1841
(lp1842
I156
aI896000000
abaS'/base_link'
p1843
abag38
(g53
g40
Ntp1844
Rp1845
(lp1846
g38
(g57
g40
Ntp1847
Rp1848
(lp1849
F0.3801046424160878
aF-0.15483268186541205
aF0.7809711577347893
abag38
(g61
g40
Ntp1850
Rp1851
(lp1852
F-0.09432491074162769
aF-0.48581022758866854
aF-0.03718965522574454
aF0.868163673236804
abababag38
(g39
g40
Ntp1853
Rp1854
(lp1855
g38
(g44
g40
Ntp1856
Rp1857
(lp1858
I0
ag38
(g48
g40
Ntp1859
Rp1860
(lp1861
I157
aI278000000
abaS'/base_link'
p1862
abag38
(g53
g40
Ntp1863
Rp1864
(lp1865
g38
(g57
g40
Ntp1866
Rp1867
(lp1868
F0.3868023059344535
aF-0.15382948789660744
aF0.7962770855853195
abag38
(g61
g40
Ntp1869
Rp1870
(lp1871
F-0.09614978345610613
aF-0.4859235335019689
aF-0.0400361587480959
aF0.8677733832764185
abababag38
(g39
g40
Ntp1872
Rp1873
(lp1874
g38
(g44
g40
Ntp1875
Rp1876
(lp1877
I0
ag38
(g48
g40
Ntp1878
Rp1879
(lp1880
I157
aI610000000
abaS'/base_link'
p1881
abag38
(g53
g40
Ntp1882
Rp1883
(lp1884
g38
(g57
g40
Ntp1885
Rp1886
(lp1887
F0.3926132429767809
aF-0.15243630092408944
aF0.8119098575881081
abag38
(g61
g40
Ntp1888
Rp1889
(lp1890
F-0.09915044553746206
aF-0.4866930169071001
aF-0.04275312641862773
aF0.866874423792178
abababag38
(g39
g40
Ntp1891
Rp1892
(lp1893
g38
(g44
g40
Ntp1894
Rp1895
(lp1896
I0
ag38
(g48
g40
Ntp1897
Rp1898
(lp1899
I157
aI942000000
abaS'/base_link'
p1900
abag38
(g53
g40
Ntp1901
Rp1902
(lp1903
g38
(g57
g40
Ntp1904
Rp1905
(lp1906
F0.3973332729993309
aF-0.1509350384745489
aF0.8271595699275229
abag38
(g61
g40
Ntp1907
Rp1908
(lp1909
F-0.10231231347906626
aF-0.48754891223661206
aF-0.04668030124568574
aF0.8658228445606351
abababasS'RLAD'
p1910
(lp1911
g38
(g39
g40
Ntp1912
Rp1913
(lp1914
g38
(g44
g40
Ntp1915
Rp1916
(lp1917
I0
ag38
(g48
g40
Ntp1918
Rp1919
(lp1920
I1600
aI56000000
abaS'/base_link'
p1921
abag38
(g53
g40
Ntp1922
Rp1923
(lp1924
g38
(g57
g40
Ntp1925
Rp1926
(lp1927
F0.6341711269662327
aF-0.21608505591502042
aF0.47877087014618486
abag38
(g61
g40
Ntp1928
Rp1929
(lp1930
F-0.0039604742893410315
aF-0.14450812325922513
aF-0.07740784690535131
aF0.9864632492865498
abababag38
(g39
g40
Ntp1931
Rp1932
(lp1933
g38
(g44
g40
Ntp1934
Rp1935
(lp1936
I0
ag38
(g48
g40
Ntp1937
Rp1938
(lp1939
I1600
aI980000000
abaS'/base_link'
p1940
abag38
(g53
g40
Ntp1941
Rp1942
(lp1943
g38
(g57
g40
Ntp1944
Rp1945
(lp1946
F0.6540300937977395
aF-0.15177474006619365
aF0.4794169429657625
abag38
(g61
g40
Ntp1947
Rp1948
(lp1949
F0.0037134992814418966
aF-0.1450503573039753
aF-0.02410912997630271
aF0.9891235279887248
abababag38
(g39
g40
Ntp1950
Rp1951
(lp1952
g38
(g44
g40
Ntp1953
Rp1954
(lp1955
I0
ag38
(g48
g40
Ntp1956
Rp1957
(lp1958
I1601
aI37000000
abaS'/base_link'
p1959
abag38
(g53
g40
Ntp1960
Rp1961
(lp1962
g38
(g57
g40
Ntp1963
Rp1964
(lp1965
F0.6900264631259162
aF-0.044818319348091495
aF0.5055288620359968
abag38
(g61
g40
Ntp1966
Rp1967
(lp1968
F0.024737885555826816
aF-0.1705597206239675
aF0.0509039632729468
aF0.9837205930761069
abababag38
(g39
g40
Ntp1969
Rp1970
(lp1971
g38
(g44
g40
Ntp1972
Rp1973
(lp1974
I0
ag38
(g48
g40
Ntp1975
Rp1976
(lp1977
I1601
aI118000000
abaS'/base_link'
p1978
abag38
(g53
g40
Ntp1979
Rp1980
(lp1981
g38
(g57
g40
Ntp1982
Rp1983
(lp1984
F0.7085130130372026
aF0.08329407564944248
aF0.5384352114319868
abag38
(g61
g40
Ntp1985
Rp1986
(lp1987
F0.052984631978226907
aF-0.1979434762752885
aF0.13499981506888994
aF0.9694256335096321
abababasS'GRASP'
p1988
(lp1989
g3
(g4
(I0
tp1990
g6
tp1991
Rp1992
(I1
(I4
tp1993
g10
(S'f8'
p1994
I0
I1
tp1995
Rp1996
(I3
S'<'
p1997
NNNI-1
I-1
I0
tp1998
bI00
S'\x14\xfb]\x1a\x95\xff\xef?\x8dA\x99\xb1\xa0\xe5q?\x8d\x10Yy2\xa4\x82\xbf\xd9\x81\xfe\x18\x13\xdd\xc6\xbf'
p1999
tp2000
bag3
(g4
(I0
tp2001
g6
tp2002
Rp2003
(I1
(I4
tp2004
g1996
I00
S'\xa7\xf2.\xae\xdc\xdcq\xbfh\xc4\x85"\xeb\xff\xef?\x907\x84y\xfd\xbcN?\xa0\xe4\x8f\x0b\x03\xfa\x86\xbf'
p2005
tp2006
bag3
(g4
(I0
tp2007
g6
tp2008
Rp2009
(I1
(I4
tp2010
g1996
I00
S'^\x94\xe3pL\xa6\x82?B\xe5\xaeC\x9aoM\xbf\xc2_73\xa8\xff\xef?\xa8|\x81]N\xe9\xb1?'
p2011
tp2012
bag3
(g4
(I0
tp2013
g6
tp2014
Rp2015
(I1
(I4
tp2016
g1996
I00
S'\x00\x00\x00\x00\x00\x00\x00\x00\x00\x00\x00\x00\x00\x00\x00\x00\x00\x00\x00\x00\x00\x00\x00\x00\x00\x00\x00\x00\x00\x00\xf0?'
p2017
tp2018
basS'RLMR'
p2019
(lp2020
g38
(g39
g40
Ntp2021
Rp2022
(lp2023
g38
(g44
g40
Ntp2024
Rp2025
(lp2026
I11
ag38
(g48
g40
Ntp2027
Rp2028
(lp2029
I0
aI0
abaS'base_link'
p2030
abag38
(g53
g40
Ntp2031
Rp2032
(lp2033
g38
(g57
g40
Ntp2034
Rp2035
(lp2036
F0.6347810491514794
aF-0.21537103844277652
aF0.4788729053956491
abag38
(g61
g40
Ntp2037
Rp2038
(lp2039
F-0.003535106021627294
aF-0.1448431289263165
aF-0.07587118322291157
aF0.9865351157382112
abababag38
(g39
g40
Ntp2040
Rp2041
(lp2042
g2025
ag38
(g53
g40
Ntp2043
Rp2044
(lp2045
g38
(g57
g40
Ntp2046
Rp2047
(lp2048
g121
(g124
S'\xed\x1c\x06=a9\xe4?'
p2049
tp2050
Rp2051
ag121
(g124
S'\xfa\xdcf\xd2\x0b\x8b\xcb\xbf'
p2052
tp2053
Rp2054
ag121
(g124
S'\xfa\xfe\xeaB\xe3G\xdf?'
p2055
tp2056
Rp2057
abag38
(g61
g40
Ntp2058
Rp2059
(lp2060
g121
(g124
S'\xe7\x1f\xa0\xe9\xfc\x81x?'
p2061
tp2062
Rp2063
ag121
(g124
S'\xed\x8c\xc9\x95:@\xc7\xbf'
p2064
tp2065
Rp2066
ag121
(g124
S'\x03\x82\xdcR\xe1\xe8\xb2\xbf'
p2067
tp2068
Rp2069
ag121
(g124
S'H\xf4\xb5\x9a\xce`\xef?'
p2070
tp2071
Rp2072
abababag38
(g39
g40
Ntp2073
Rp2074
(lp2075
g2025
ag38
(g53
g40
Ntp2076
Rp2077
(lp2078
g38
(g57
g40
Ntp2079
Rp2080
(lp2081
g121
(g124
S'\xd3\xcf\x96\x16\xb9\x16\xe4?'
p2082
tp2083
Rp2084
ag121
(g124
S'\xf08\xc5]GD\xcc\xbf'
p2085
tp2086
Rp2087
ag121
(g124
S'm<R\x03\xb7\xd8\xdf?'
p2088
tp2089
Rp2090
abag38
(g61
g40
Ntp2091
Rp2092
(lp2093
g121
(g124
S'f\xa8\xb2\xba\xb6l\x98?'
p2094
tp2095
Rp2096
ag121
(g124
S'}3\xe0*M\xb6\xcb\xbf'
p2097
tp2098
Rp2099
ag121
(g124
S'MP\xe1}\xf7\x8b\xb7\xbf'
p2100
tp2101
Rp2102
ag121
(g124
S'Q\x95\x9a\xca\xbb\x17\xef?'
p2103
tp2104
Rp2105
abababag38
(g39
g40
Ntp2106
Rp2107
(lp2108
g2025
ag38
(g53
g40
Ntp2109
Rp2110
(lp2111
g38
(g57
g40
Ntp2112
Rp2113
(lp2114
g121
(g124
S'N_\x9cS\x15\xe7\xe3?'
p2115
tp2116
Rp2117
ag121
(g124
S'\xd0\xd8\xaa\x00v\xef\xcc\xbf'
p2118
tp2119
Rp2120
ag121
(g124
S'\x9a\x83\x92N\x8e(\xe0?'
p2121
tp2122
Rp2123
abag38
(g61
g40
Ntp2124
Rp2125
(lp2126
g121
(g124
S'T\\\x88\x7f\x88\xd7\xa3?'
p2127
tp2128
Rp2129
ag121
(g124
S'\xb3\x9a\xaf\x90\x95\x00\xd0\xbf'
p2130
tp2131
Rp2132
ag121
(g124
S'\x04\x8e\x06\x9dg\\\xbb\xbf'
p2133
tp2134
Rp2135
ag121
(g124
S'\xa8\x84\x97p\xed\xc4\xee?'
p2136
tp2137
Rp2138
abababag38
(g39
g40
Ntp2139
Rp2140
(lp2141
g2025
ag38
(g53
g40
Ntp2142
Rp2143
(lp2144
g38
(g57
g40
Ntp2145
Rp2146
(lp2147
g121
(g124
S'\x9a\xb6\xd0\xd7\xe9\xb7\xe3?'
p2148
tp2149
Rp2150
ag121
(g124
S'\xc1\xa9\xd9}z]\xcd\xbf'
p2151
tp2152
Rp2153
ag121
(g124
S'p\xb0jZ\x0es\xe0?'
p2154
tp2155
Rp2156
abag38
(g61
g40
Ntp2157
Rp2158
(lp2159
g121
(g124
S'\xb3<\x04\xa0Ox\xaa?'
p2160
tp2161
Rp2162
ag121
(g124
S'\xb66\xf3\x8f7y\xd2\xbf'
p2163
tp2164
Rp2165
ag121
(g124
S'\x83\xb8g\xe3\xd2\x03\xbe\xbf'
p2166
tp2167
Rp2168
ag121
(g124
S'i3\xfc\\\xbf\\\xee?'
p2169
tp2170
Rp2171
abababag38
(g39
g40
Ntp2172
Rp2173
(lp2174
g2025
ag38
(g53
g40
Ntp2175
Rp2176
(lp2177
g38
(g57
g40
Ntp2178
Rp2179
(lp2180
g121
(g124
S'\xb4m|5y\x85\xe3?'
p2181
tp2182
Rp2183
ag121
(g124
S'"\xe9K\xfa\xae\x86\xcd\xbf'
p2184
tp2185
Rp2186
ag121
(g124
S'\x88\xbf4\xd3\xd6\xb1\xe0?'
p2187
tp2188
Rp2189
abag38
(g61
g40
Ntp2190
Rp2191
(lp2192
g121
(g124
S'\xc4<h\x1c;\x83\xad?'
p2193
tp2194
Rp2195
ag121
(g124
S'G\x87\xc96\xfc\xad\xd4\xbf'
p2196
tp2197
Rp2198
ag121
(g124
S'\xe7l4O\x7f\x99\xbe\xbf'
p2199
tp2200
Rp2201
ag121
(g124
S'M>(C\xf8\xfb\xed?'
p2202
tp2203
Rp2204
abababag38
(g39
g40
Ntp2205
Rp2206
(lp2207
g2025
ag38
(g53
g40
Ntp2208
Rp2209
(lp2210
g38
(g57
g40
Ntp2211
Rp2212
(lp2213
g121
(g124
S'\xbb\xf4#\x84,U\xe3?'
p2214
tp2215
Rp2216
ag121
(g124
S'\xff\x1d\xba\x04\x98F\xcd\xbf'
p2217
tp2218
Rp2219
ag121
(g124
S'i~\x8f\x7f\xae\xf8\xe0?'
p2220
tp2221
Rp2222
abag38
(g61
g40
Ntp2223
Rp2224
(lp2225
g121
(g124
S'\x06\xb2\x07\x0c\xeee\xac?'
p2226
tp2227
Rp2228
ag121
(g124
S'\xf93\xda6\x0e\xf5\xd6\xbf'
p2229
tp2230
Rp2231
ag121
(g124
S'\xa5F\xbf\x81\x0b|\xbc\xbf'
p2232
tp2233
Rp2234
ag121
(g124
S'\xa5,v\x03\xb2\x9a\xed?'
p2235
tp2236
Rp2237
abababag38
(g39
g40
Ntp2238
Rp2239
(lp2240
g2025
ag38
(g53
g40
Ntp2241
Rp2242
(lp2243
g38
(g57
g40
Ntp2244
Rp2245
(lp2246
g121
(g124
S'~\x95]\xff\xbe!\xe3?'
p2247
tp2248
Rp2249
ag121
(g124
S'3\x0b\xa1\xe3\x1d\xa5\xcc\xbf'
p2250
tp2251
Rp2252
ag121
(g124
S'\xf9\xea\xce\x80!4\xe1?'
p2253
tp2254
Rp2255
abag38
(g61
g40
Ntp2256
Rp2257
(lp2258
g121
(g124
S'%\x9e\x8b\xf6\xcc\x1f\xa8?'
p2259
tp2260
Rp2261
ag121
(g124
S'(o\x0e\x88]\x13\xd9\xbf'
p2262
tp2263
Rp2264
ag121
(g124
S'\xc1\xd4}Y\x91V\xb8\xbf'
p2265
tp2266
Rp2267
ag121
(g124
S'\xd4\xf6\x0b\x0b\xbd>\xed?'
p2268
tp2269
Rp2270
abababag38
(g39
g40
Ntp2271
Rp2272
(lp2273
g2025
ag38
(g53
g40
Ntp2274
Rp2275
(lp2276
g38
(g57
g40
Ntp2277
Rp2278
(lp2279
g121
(g124
S'\x8e\xbd!n;\xe9\xe2?'
p2280
tp2281
Rp2282
ag121
(g124
S')R\x07R:\x05\xcc\xbf'
p2283
tp2284
Rp2285
ag121
(g124
S'\n\xd7\xaf\x0c\tr\xe1?'
p2286
tp2287
Rp2288
abag38
(g61
g40
Ntp2289
Rp2290
(lp2291
g121
(g124
S'\xd1p;\xd6eE\xa3?'
p2292
tp2293
Rp2294
ag121
(g124
S'\xde=\xee\xdf2=\xdb\xbf'
p2295
tp2296
Rp2297
ag121
(g124
S'\x12\xbb\xf4\xfb\xa2 \xb4\xbf'
p2298
tp2299
Rp2300
ag121
(g124
S'GU+|\x85\xd2\xec?'
p2301
tp2302
Rp2303
abababag38
(g39
g40
Ntp2304
Rp2305
(lp2306
g2025
ag38
(g53
g40
Ntp2307
Rp2308
(lp2309
g38
(g57
g40
Ntp2310
Rp2311
(lp2312
g121
(g124
S'>\x19p\xc1\xf4\xaa\xe2?'
p2313
tp2314
Rp2315
ag121
(g124
S"\xdc'z\xe9p\x8c\xcb\xbf"
p2316
tp2317
Rp2318
ag121
(g124
S'r\xeaU\xb1\xae\xa2\xe1?'
p2319
tp2320
Rp2321
abag38
(g61
g40
Ntp2322
Rp2323
(lp2324
g121
(g124
S'*d\x1c\x05\xd0_\x9f?'
p2325
tp2326
Rp2327
ag121
(g124
S'>\x12\xcd\xff\xf1L\xdd\xbf'
p2328
tp2329
Rp2330
ag121
(g124
S'\xacT\x06NK\x94\xb1\xbf'
p2331
tp2332
Rp2333
ag121
(g124
S'\xb1\xc2t\x14\xf4X\xec?'
p2334
tp2335
Rp2336
abababag38
(g39
g40
Ntp2337
Rp2338
(lp2339
g2025
ag38
(g53
g40
Ntp2340
Rp2341
(lp2342
g38
(g57
g40
Ntp2343
Rp2344
(lp2345
g121
(g124
S'\x0eIu\x0f\xd6f\xe2?'
p2346
tp2347
Rp2348
ag121
(g124
S';\xf5M\xad\xec \xcb\xbf'
p2349
tp2350
Rp2351
ag121
(g124
S'\xff\r\x8858\xd5\xe1?'
p2352
tp2353
Rp2354
abag38
(g61
g40
Ntp2355
Rp2356
(lp2357
g121
(g124
S'\xe2\xe7e\x08\xf1S\x96?'
p2358
tp2359
Rp2360
ag121
(g124
S'\x10\x93X\xdeZd\xdf\xbf'
p2361
tp2362
Rp2363
ag121
(g124
S')u\x9atv\x1e\xae\xbf'
p2364
tp2365
Rp2366
ag121
(g124
S')\x98\x04DR\xd0\xeb?'
p2367
tp2368
Rp2369
abababag38
(g39
g40
Ntp2370
Rp2371
(lp2372
g2025
ag38
(g53
g40
Ntp2373
Rp2374
(lp2375
g38
(g57
g40
Ntp2376
Rp2377
(lp2378
g121
(g124
S'\x02\x04V\xf2\xc3!\xe2?'
p2379
tp2380
Rp2381
ag121
(g124
S'\x07Z\x8c\x8cT\xc2\xca\xbf'
p2382
tp2383
Rp2384
ag121
(g124
S'\xc2,\xfe\xceY\x07\xe2?'
p2385
tp2386
Rp2387
abag38
(g61
g40
Ntp2388
Rp2389
(lp2390
g121
(g124
S'\xe4\xfc\xd62Zk\x84?'
p2391
tp2392
Rp2393
ag121
(g124
S'\xb1Ts\x96\xa5\x9d\xe0\xbf'
p2394
tp2395
Rp2396
ag121
(g124
S'\x02\x80\xf3)\xfeV\xa9\xbf'
p2397
tp2398
Rp2399
ag121
(g124
S'\xc7R\xce\xb0\xdeL\xeb?'
p2400
tp2401
Rp2402
abababag38
(g39
g40
Ntp2403
Rp2404
(lp2405
g2025
ag38
(g53
g40
Ntp2406
Rp2407
(lp2408
g38
(g57
g40
Ntp2409
Rp2410
(lp2411
g121
(g124
S':\xeb=\xa4\xdc\xc9\xe1?'
p2412
tp2413
Rp2414
ag121
(g124
S'M\x16\xeb\x88\x08\x12\xcb\xbf'
p2415
tp2416
Rp2417
ag121
(g124
S'A\xd7-\r\x00l\xe2?'
p2418
tp2419
Rp2420
abag38
(g61
g40
Ntp2421
Rp2422
(lp2423
g121
(g124
S'pxZJ\xb9\xf2\x90\xbf'
p2424
tp2425
Rp2426
ag121
(g124
S'\x91\xfc\xb2\xc0\xeeI\xe1\xbf'
p2427
tp2428
Rp2429
ag121
(g124
S'\n\xa4\xda\x94\xc7\xea\xa5\xbf'
p2430
tp2431
Rp2432
ag121
(g124
S'{H9\xac6\xe3\xea?'
p2433
tp2434
Rp2435
abababag38
(g39
g40
Ntp2436
Rp2437
(lp2438
g2025
ag38
(g53
g40
Ntp2439
Rp2440
(lp2441
g38
(g57
g40
Ntp2442
Rp2443
(lp2444
g121
(g124
S';\xcb\xe8.\xf1b\xe1?'
p2445
tp2446
Rp2447
ag121
(g124
S'\xbew\x1c\xf8\xe6\xde\xcb\xbf'
p2448
tp2449
Rp2450
ag121
(g124
S'}`\xb2m\x0c\xfa\xe2?'
p2451
tp2452
Rp2453
abag38
(g61
g40
Ntp2454
Rp2455
(lp2456
g121
(g124
S'JG\xf3\xca$>\xaa\xbf'
p2457
tp2458
Rp2459
ag121
(g124
S'\xf1s\nTn\xd6\xe1\xbf'
p2460
tp2461
Rp2462
ag121
(g124
S'\xb9\x1bn\x12\xed!\xa5\xbf'
p2463
tp2464
Rp2465
ag121
(g124
S'\xd6\x11\x19\xa3\xd1{\xea?'
p2466
tp2467
Rp2468
abababag38
(g39
g40
Ntp2469
Rp2470
(lp2471
g2025
ag38
(g53
g40
Ntp2472
Rp2473
(lp2474
g38
(g57
g40
Ntp2475
Rp2476
(lp2477
g121
(g124
S'\xca\xdc5c\xd0\\\xe1?'
p2478
tp2479
Rp2480
ag121
(g124
S'\xdai\xc5lc\xd3\xc9\xbf'
p2481
tp2482
Rp2483
ag121
(g124
S']\xac\x80\xa1,W\xe3?'
p2484
tp2485
Rp2486
abag38
(g61
g40
Ntp2487
Rp2488
(lp2489
g121
(g124
S'e\xe4.a\xee4\xb1\xbf'
p2490
tp2491
Rp2492
ag121
(g124
S'\x8d\x873\x13\xfc\x1f\xe2\xbf'
p2493
tp2494
Rp2495
ag121
(g124
S'\xb7,"\xe6%\xca\x96\xbf'
p2496
tp2497
Rp2498
ag121
(g124
S'\x91\x8d\xd6sJF\xea?'
p2499
tp2500
Rp2501
abababag38
(g39
g40
Ntp2502
Rp2503
(lp2504
g2025
ag38
(g53
g40
Ntp2505
Rp2506
(lp2507
g38
(g57
g40
Ntp2508
Rp2509
(lp2510
g121
(g124
S'\xe9R\xfa\x9e\x05\xf9\xe1?'
p2511
tp2512
Rp2513
ag121
(g124
S'\xc9\xa9\\\xb3\xe2\x93\xc7\xbf'
p2514
tp2515
Rp2516
ag121
(g124
S'EPm\xf2\xc4-\xe3?'
p2517
tp2518
Rp2519
abag38
(g61
g40
Ntp2520
Rp2521
(lp2522
g121
(g124
S'1\xd7\x98\x04\x18\x0e\xac\xbf'
p2523
tp2524
Rp2525
ag121
(g124
S'\x97\x94\xd0\x9b\xba\xdc\xe0\xbf'
p2526
tp2527
Rp2528
ag121
(g124
S"'\xe4\x90\xf7\xd8\x1ec\xbf"
p2529
tp2530
Rp2531
ag121
(g124
S'\xf6\xeb\xb2\xf2\xdd#\xeb?'
p2532
tp2533
Rp2534
abababag38
(g39
g40
Ntp2535
Rp2536
(lp2537
g2025
ag38
(g53
g40
Ntp2538
Rp2539
(lp2540
g38
(g57
g40
Ntp2541
Rp2542
(lp2543
g121
(g124
S'BK3w\xb0?\xe2?'
p2544
tp2545
Rp2546
ag121
(g124
S'M\x03\xc1\xe3\xd0\x8a\xc7\xbf'
p2547
tp2548
Rp2549
ag121
(g124
S'\xf2\xf98\xebL\x02\xe3?'
p2550
tp2551
Rp2552
abag38
(g61
g40
Ntp2553
Rp2554
(lp2555
g121
(g124
S'\xe5\xc5C\xc7\xd7\xa8\xab\xbf'
p2556
tp2557
Rp2558
ag121
(g124
S'\xb4\x92\x9d>\x00\xb6\xdf\xbf'
p2559
tp2560
Rp2561
ag121
(g124
S'A\x16nW\xff\xc1\\?'
p2562
tp2563
Rp2564
ag121
(g124
S'~\xd8(t\xec\xbd\xeb?'
p2565
tp2566
Rp2567
abababag38
(g39
g40
Ntp2568
Rp2569
(lp2570
g2025
ag38
(g53
g40
Ntp2571
Rp2572
(lp2573
g38
(g57
g40
Ntp2574
Rp2575
(lp2576
g121
(g124
S'\x90\x01\r\xe1\x8d\x82\xe2?'
p2577
tp2578
Rp2579
ag121
(g124
S'\x18\x98N\xecU?\xc6\xbf'
p2580
tp2581
Rp2582
ag121
(g124
S'\xdb\xb6\x02?\xde\xda\xe2?'
p2583
tp2584
Rp2585
abag38
(g61
g40
Ntp2586
Rp2587
(lp2588
g121
(g124
S'\xe0\x19W\xce\x01\x00\xa9\xbf'
p2589
tp2590
Rp2591
ag121
(g124
S'H\xdd\xf7"\xcd\xb4\xdd\xbf'
p2592
tp2593
Rp2594
ag121
(g124
S'?\x8e\xa2\t\xa4\xb0{\xbf'
p2595
tp2596
Rp2597
ag121
(g124
S'X\xd8z3\xd4L\xec?'
p2598
tp2599
Rp2600
abababag38
(g39
g40
Ntp2601
Rp2602
(lp2603
g2025
ag38
(g53
g40
Ntp2604
Rp2605
(lp2606
g38
(g57
g40
Ntp2607
Rp2608
(lp2609
g121
(g124
S'\xf7\x87M9\xab\xc2\xe2?'
p2610
tp2611
Rp2612
ag121
(g124
S'N\x15w\xf3\xebF\xc8\xbf'
p2613
tp2614
Rp2615
ag121
(g124
S'LL\x85Y\xfd\xac\xe2?'
p2616
tp2617
Rp2618
abag38
(g61
g40
Ntp2619
Rp2620
(lp2621
g121
(g124
S'\xd6\xff5\xf8g\x9c\xa7\xbf'
p2622
tp2623
Rp2624
ag121
(g124
S'V\x82\x1c%\xc8\xbf\xdb\xbf'
p2625
tp2626
Rp2627
ag121
(g124
S'f\xb7\xe0l\xb0\xc5\x8c\xbf'
p2628
tp2629
Rp2630
ag121
(g124
S't\x03"\xa1\\\xcb\xec?'
p2631
tp2632
Rp2633
abababag38
(g39
g40
Ntp2634
Rp2635
(lp2636
g2025
ag38
(g53
g40
Ntp2637
Rp2638
(lp2639
g38
(g57
g40
Ntp2640
Rp2641
(lp2642
g121
(g124
S'Az\x1c\x04\x00\x00\xe3?'
p2643
tp2644
Rp2645
ag121
(g124
S'\xcc))\x0eJ\x7f\xc8\xbf'
p2646
tp2647
Rp2648
ag121
(g124
S'|\x08>0\xb1q\xe2?'
p2649
tp2650
Rp2651
abag38
(g61
g40
Ntp2652
Rp2653
(lp2654
g121
(g124
S'\xaaM\xf8\xbb\xd5\xa6\xa6\xbf'
p2655
tp2656
Rp2657
ag121
(g124
S'\xea\x95\xbc3A\x96\xd9\xbf'
p2658
tp2659
Rp2660
ag121
(g124
S'\x14A\x15\n\xe1\xe7\x92\xbf'
p2661
tp2662
Rp2663
ag121
(g124
S'\xf2\x89 \x80\x8bJ\xed?'
p2664
tp2665
Rp2666
abababag38
(g39
g40
Ntp2667
Rp2668
(lp2669
g2025
ag38
(g53
g40
Ntp2670
Rp2671
(lp2672
g38
(g57
g40
Ntp2673
Rp2674
(lp2675
g121
(g124
S'&\x18\xe3\x00\xb3;\xe3?'
p2676
tp2677
Rp2678
ag121
(g124
S'\xab\x1e\x01H\x16\xa6\xc8\xbf'
p2679
tp2680
Rp2681
ag121
(g124
S'\xfb\x13RN\x97;\xe2?'
p2682
tp2683
Rp2684
abag38
(g61
g40
Ntp2685
Rp2686
(lp2687
g121
(g124
S'\xb5\xb2\xd0\xe21J\xa7\xbf'
p2688
tp2689
Rp2690
ag121
(g124
S'\xb30\x12t\x15x\xd7\xbf'
p2691
tp2692
Rp2693
ag121
(g124
S'\x14.\xdb\xbf/\\\x96\xbf'
p2694
tp2695
Rp2696
ag121
(g124
S'o\x0e:\x93\x1b\xba\xed?'
p2697
tp2698
Rp2699
abababag38
(g39
g40
Ntp2700
Rp2701
(lp2702
g2025
ag38
(g53
g40
Ntp2703
Rp2704
(lp2705
g38
(g57
g40
Ntp2706
Rp2707
(lp2708
g121
(g124
S'\xe2\xc7\x99\xd4\x84p\xe3?'
p2709
tp2710
Rp2711
ag121
(g124
S'\xc6\x80\x85\x99\xa4\xbb\xc8\xbf'
p2712
tp2713
Rp2714
ag121
(g124
S'\xa4\x9b\xfd\x18\xaf\xfc\xe1?'
p2715
tp2716
Rp2717
abag38
(g61
g40
Ntp2718
Rp2719
(lp2720
g121
(g124
S'@\xe4_\xac\x08\x92\xa9\xbf'
p2721
tp2722
Rp2723
ag121
(g124
S'k"0\x93`>\xd5\xbf'
p2724
tp2725
Rp2726
ag121
(g124
S'\xa47e\xeb\xb4\xca\x97\xbf'
p2727
tp2728
Rp2729
ag121
(g124
S'\x9b<\xef\xbeZ"\xee?'
p2730
tp2731
Rp2732
abababag38
(g39
g40
Ntp2733
Rp2734
(lp2735
g2025
ag38
(g53
g40
Ntp2736
Rp2737
(lp2738
g38
(g57
g40
Ntp2739
Rp2740
(lp2741
g121
(g124
S'\xba\x0fR5\x04\xa1\xe3?'
p2742
tp2743
Rp2744
ag121
(g124
S'\xd6\x07\xb77\xec\xc3\xc8\xbf'
p2745
tp2746
Rp2747
ag121
(g124
S'<\x1a5\xc1\xad\xba\xe1?'
p2748
tp2749
Rp2750
abag38
(g61
g40
Ntp2751
Rp2752
(lp2753
g121
(g124
S's\x0e\x14\x8a#_\xac\xbf'
p2754
tp2755
Rp2756
ag121
(g124
S'\xb8\\\xb11r\t\xd3\xbf'
p2757
tp2758
Rp2759
ag121
(g124
S'y\xca\xa5\xe7\x8eK\x98\xbf'
p2760
tp2761
Rp2762
ag121
(g124
S'\x8ax\xee\xc3\x99}\xee?'
p2763
tp2764
Rp2765
abababag38
(g39
g40
Ntp2766
Rp2767
(lp2768
g2025
ag38
(g53
g40
Ntp2769
Rp2770
(lp2771
g38
(g57
g40
Ntp2772
Rp2773
(lp2774
g121
(g124
S'~\xa4[=\x91\xce\xe3?'
p2775
tp2776
Rp2777
ag121
(g124
S'A\xb3d\xfe\x08\xc9\xc8\xbf'
p2778
tp2779
Rp2780
ag121
(g124
S'\xedH{VCu\xe1?'
p2781
tp2782
Rp2783
abag38
(g61
g40
Ntp2784
Rp2785
(lp2786
g121
(g124
S'\x05T\n\xea\xef\xdc\xaf\xbf'
p2787
tp2788
Rp2789
ag121
(g124
S'\xd3\xfef\x16D\xcb\xd0\xbf'
p2790
tp2791
Rp2792
ag121
(g124
S'\xc1\xc04\x904)\x98\xbf'
p2793
tp2794
Rp2795
ag121
(g124
S'\xf9[kI\x1b\xce\xee?'
p2796
tp2797
Rp2798
abababag38
(g39
g40
Ntp2799
Rp2800
(lp2801
g2025
ag38
(g53
g40
Ntp2802
Rp2803
(lp2804
g38
(g57
g40
Ntp2805
Rp2806
(lp2807
g121
(g124
S'\xb6\x8eR.\xb1\xf6\xe3?'
p2808
tp2809
Rp2810
ag121
(g124
S'\xb6~\x89oL\xb6\xc8\xbf'
p2811
tp2812
Rp2813
ag121
(g124
S'aa@\x06]*\xe1?'
p2814
tp2815
Rp2816
abag38
(g61
g40
Ntp2817
Rp2818
(lp2819
g121
(g124
S'\xcd\x800\xc5\x10o\xb2\xbf'
p2820
tp2821
Rp2822
ag121
(g124
S'\n\xa7q\xe3\x19\xfc\xcc\xbf'
p2823
tp2824
Rp2825
ag121
(g124
S'x\xa7>\x0f\\\x0f\x96\xbf'
p2826
tp2827
Rp2828
ag121
(g124
S'?\x06\xb6fj\x13\xef?'
p2829
tp2830
Rp2831
abababag38
(g39
g40
Ntp2832
Rp2833
(lp2834
g2025
ag38
(g53
g40
Ntp2835
Rp2836
(lp2837
g38
(g57
g40
Ntp2838
Rp2839
(lp2840
g121
(g124
S'\x83R\x8aFB\x1b\xe4?'
p2841
tp2842
Rp2843
ag121
(g124
S'\x89\x8f8!\x88|\xc8\xbf'
p2844
tp2845
Rp2846
ag121
(g124
S'W\x81\xc2\xbc\xa7\xe0\xe0?'
p2847
tp2848
Rp2849
abag38
(g61
g40
Ntp2850
Rp2851
(lp2852
g121
(g124
S'\x87\xd5\xcdQ\xfas\xb5\xbf'
p2853
tp2854
Rp2855
ag121
(g124
S'\x83\xc8^\x8eNv\xc8\xbf'
p2856
tp2857
Rp2858
ag121
(g124
S'\xe7\xd8-\xa7&\xe2\x90\xbf'
p2859
tp2860
Rp2861
ag121
(g124
S'5\xdc\x189\x83J\xef?'
p2862
tp2863
Rp2864
abababag38
(g39
g40
Ntp2865
Rp2866
(lp2867
g2025
ag38
(g53
g40
Ntp2868
Rp2869
(lp2870
g38
(g57
g40
Ntp2871
Rp2872
(lp2873
g121
(g124
S'v\x0e\x80\x9ez3\xe4?'
p2874
tp2875
Rp2876
ag121
(g124
S'\x99\x13\xf8\x8d\xab|\xc8\xbf'
p2877
tp2878
Rp2879
ag121
(g124
S']R\x83\xac\xf4\x90\xe0?'
p2880
tp2881
Rp2882
abag38
(g61
g40
Ntp2883
Rp2884
(lp2885
g121
(g124
S'\x9d\xa1\xc1\xbf(\x81\xb8\xbf'
p2886
tp2887
Rp2888
ag121
(g124
S'\x04\x13\x90\x8e\x9e\xec\xc3\xbf'
p2889
tp2890
Rp2891
ag121
(g124
S'\xe5%\xa2\xc2z1\x8b\xbf'
p2892
tp2893
Rp2894
ag121
(g124
S'\xd5\xd3+\x90Tu\xef?'
p2895
tp2896
Rp2897
abababag38
(g39
g40
Ntp2898
Rp2899
(lp2900
g2025
ag38
(g53
g40
Ntp2901
Rp2902
(lp2903
g38
(g57
g40
Ntp2904
Rp2905
(lp2906
g121
(g124
S'\x04\xbe\rZ+H\xe4?'
p2907
tp2908
Rp2909
ag121
(g124
S'\x80\xe0\xd8\xaf\x05(\xc9\xbf'
p2910
tp2911
Rp2912
ag121
(g124
S'C^}\xea\x83N\xe0?'
p2913
tp2914
Rp2915
abag38
(g61
g40
Ntp2916
Rp2917
(lp2918
g121
(g124
S'.<<\xea\xbb\xa2\xb9\xbf'
p2919
tp2920
Rp2921
ag121
(g124
S'Ddl\x8fPy\xbf\xbf'
p2922
tp2923
Rp2924
ag121
(g124
S'\xcc\xdfV\x0f\xc3\xd8\x9d\xbf'
p2925
tp2926
Rp2927
ag121
(g124
S'u\x84\x12\x06\xd5\x94\xef?'
p2928
tp2929
Rp2930
abababas.