(dp0
S'PREGRASP'
p1
(lp2
cnumpy.core.multiarray
_reconstruct
p3
(cnumpy
ndarray
p4
(I0
tp5
S'b'
p6
tp7
Rp8
(I1
(I4
tp9
cnumpy
dtype
p10
(S'f8'
p11
I0
I1
tp12
Rp13
(I3
S'<'
p14
NNNI-1
I-1
I0
tp15
bI00
S'\x98\x08\xa5\xb2\x88e\xef?\x94\xd2*\x8c\x7f\xce\xc7?\x1dSYD\xc7\xea\xaa?\t\xde\x81g\x05\xef\xbf\xbf'
p16
tp17
bag3
(g4
(I0
tp18
g6
tp19
Rp20
(I1
(I4
tp21
g13
I00
S'\x8a\xeeR<`\xe2\xc6\xbfS\xbaH\xe2\x18A\xef?\x106\x8e\x03\x1ff\xbe\xbf\xc0\xa1\xc9l\x1d\xb2\x8b?'
p22
tp23
bag3
(g4
(I0
tp24
g6
tp25
Rp26
(I1
(I4
tp27
g13
I00
S'T\xf8\xdc\xa5}\xcc\xb2\xbf\xf7"\xe1\xb6gk\xbb?\x96d\xbe/\xa1\xba\xef?J\xb4\xc1)\xf6v\xca?'
p28
tp29
bag3
(g4
(I0
tp30
g6
tp31
Rp32
(I1
(I4
tp33
g13
I00
S'\x00\x00\x00\x00\x00\x00\x00\x00\x00\x00\x00\x00\x00\x00\x00\x00\x00\x00\x00\x00\x00\x00\x00\x00\x00\x00\x00\x00\x00\x00\xf0?'
p34
tp35
basS'RAEE'
p36
(lp37
ccopy_reg
_reconstructor
p38
(cgeometry_msgs.msg._PoseStamped
PoseStamped
p39
c__builtin__
object
p40
Ntp41
Rp42
(lp43
g38
(cstd_msgs.msg._Header
Header
p44
g40
Ntp45
Rp46
(lp47
I0
ag38
(cgenpy.rostime
Time
p48
g40
Ntp49
Rp50
(lp51
I1565741613
aI104212341
abaS'/base_link'
p52
abag38
(cgeometry_msgs.msg._Pose
Pose
p53
g40
Ntp54
Rp55
(lp56
g38
(cgeometry_msgs.msg._Point
Point
p57
g40
Ntp58
Rp59
(lp60
F0.4500501358107674
aF-0.31536112966149554
aF0.4269489495526281
abag38
(cgeometry_msgs.msg._Quaternion
Quaternion
p61
g40
Ntp62
Rp63
(lp64
F-0.12993156937098876
aF-0.03478516133845182
aF0.7123103708695211
aF0.6888553660843292
abababag38
(g39
g40
Ntp65
Rp66
(lp67
g38
(g44
g40
Ntp68
Rp69
(lp70
I0
ag38
(g48
g40
Ntp71
Rp72
(lp73
I1565741635
aI787725991
abaS'/base_link'
p74
abag38
(g53
g40
Ntp75
Rp76
(lp77
g38
(g57
g40
Ntp78
Rp79
(lp80
F0.2943395927414714
aF-0.29548135159922995
aF0.478299201862253
abag38
(g61
g40
Ntp81
Rp82
(lp83
F0.10033234665264597
aF-0.014683606533570828
aF0.6499418754909823
aF0.7531888012959335
abababag38
(g39
g40
Ntp84
Rp85
(lp86
g38
(g44
g40
Ntp87
Rp88
(lp89
I0
ag38
(g48
g40
Ntp90
Rp91
(lp92
I1565741646
aI186224006
abaS'/base_link'
p93
abag38
(g53
g40
Ntp94
Rp95
(lp96
g38
(g57
g40
Ntp97
Rp98
(lp99
F0.4344436612958764
aF-0.3184100916202758
aF0.48607588701161886
abag38
(g61
g40
Ntp100
Rp101
(lp102
F-0.07984860754025105
aF-0.07020863199080066
aF0.6960847994335296
aF0.7100428859339738
abababasS'RAEF'
p103
(lp104
g38
(g39
g40
Ntp105
Rp106
(lp107
g38
(g44
g40
Ntp108
Rp109
(lp110
I58
ag38
(g48
g40
Ntp111
Rp112
(lp113
I1565992812
aI323218107
abaS'/base_link'
p114
abag38
(g53
g40
Ntp115
Rp116
(lp117
g38
(g57
g40
Ntp118
Rp119
(lp120
cnumpy.core.multiarray
scalar
p121
(g10
(S'f8'
p122
I0
I1
tp123
Rp124
(I3
S'<'
p125
NNNI-1
I-1
I0
tp126
bS'B\x07PN\xaf\x1a\xdf?'
p127
tp128
Rp129
ag121
(g124
S'4\xc97\x83\xad\xee\xd2\xbf'
p130
tp131
Rp132
ag121
(g124
S'X\xd99\x88\xac\xbd\xda?'
p133
tp134
Rp135
abag38
(g61
g40
Ntp136
Rp137
(lp138
g121
(g124
S':\x8d\xd3P\xa1Kv?'
p139
tp140
Rp141
ag121
(g124
S'\xc0\xf4\xb5\xeb\x90Rs\xbf'
p142
tp143
Rp144
ag121
(g124
S'\xef\x91rb\x83\xc4\xe5?'
p145
tp146
Rp147
ag121
(g124
S'\x9fd\xda"_t\xe7?'
p148
tp149
Rp150
abababag38
(g39
g40
Ntp151
Rp152
(lp153
g109
ag38
(g53
g40
Ntp154
Rp155
(lp156
g38
(g57
g40
Ntp157
Rp158
(lp159
g121
(g124
S'f\x96^\x15[Q\xdf?'
p160
tp161
Rp162
ag121
(g124
S'\xc2\x1a~{\x9f\x82\xd3\xbf'
p163
tp164
Rp165
ag121
(g124
S'=\x8e\x95\xca\x7f\xe7\xdb?'
p166
tp167
Rp168
abag38
(g61
g40
Ntp169
Rp170
(lp171
g121
(g124
S'\x19_\x15?\x0e\xc9\x90\xbf'
p172
tp173
Rp174
ag121
(g124
S'\xba\xa7\xb5\xd2\x1ak\xa1?'
p175
tp176
Rp177
ag121
(g124
S'\xfeM<\x83\xa5\x1e\xe5?'
p178
tp179
Rp180
ag121
(g124
S' \xea\xa0\xff\xa6\x02\xe8?'
p181
tp182
Rp183
abababag38
(g39
g40
Ntp184
Rp185
(lp186
g109
ag38
(g53
g40
Ntp187
Rp188
(lp189
g38
(g57
g40
Ntp190
Rp191
(lp192
g121
(g124
S'\xc0\xe9\xb3\xdfk\xf5\xdf?'
p193
tp194
Rp195
ag121
(g124
S'\xbdg#c\xba\x1f\xd2\xbf'
p196
tp197
Rp198
ag121
(g124
S'\x15\xd9?.\xbc\x19\xde?'
p199
tp200
Rp201
abag38
(g61
g40
Ntp202
Rp203
(lp204
g121
(g124
S'\x11\xc4\xfd\x03))`?'
p205
tp206
Rp207
ag121
(g124
S'\xb7\xd0\x02\xfb\x86\x94\xb7?'
p208
tp209
Rp210
ag121
(g124
S'\xaa\x93\x1c<\x86}\xe7?'
p211
tp212
Rp213
ag121
(g124
S'\xfe\xa8[\xeb\x82\x87\xe5?'
p214
tp215
Rp216
abababag38
(g39
g40
Ntp217
Rp218
(lp219
g109
ag38
(g53
g40
Ntp220
Rp221
(lp222
g38
(g57
g40
Ntp223
Rp224
(lp225
g121
(g124
S'>\xbb\x9b\x08\x8a\xe0\xdf?'
p226
tp227
Rp228
ag121
(g124
S')\t\xca\xbb\x8f\xbd\xd2\xbf'
p229
tp230
Rp231
ag121
(g124
S'9\x90e\xcdr\xde\xde?'
p232
tp233
Rp234
abag38
(g61
g40
Ntp235
Rp236
(lp237
g121
(g124
S'R\xdd&K\xd14Z\xbf'
p238
tp239
Rp240
ag121
(g124
S'_P6\xf6\x85\xf8\xbd?'
p241
tp242
Rp243
ag121
(g124
S'\x83\xe4V6a\x13\xe8?'
p244
tp245
Rp246
ag121
(g124
S'\xcbEyq\x85\xbe\xe4?'
p247
tp248
Rp249
abababag38
(g39
g40
Ntp250
Rp251
(lp252
g109
ag38
(g53
g40
Ntp253
Rp254
(lp255
g38
(g57
g40
Ntp256
Rp257
(lp258
g121
(g124
S'\x98\xc4\xaf2\x0e\x8b\xe0?'
p259
tp260
Rp261
ag121
(g124
S'\x1eM\xefXv\xc7\xd2\xbf'
p262
tp263
Rp264
ag121
(g124
S'C_r\x13 a\xdf?'
p265
tp266
Rp267
abag38
(g61
g40
Ntp268
Rp269
(lp270
g121
(g124
S'8&\xdf\x19e\xf6\xa5\xbf'
p271
tp272
Rp273
ag121
(g124
S'\x1a\x19\xf6\x8b5\xa6\xc0?'
p274
tp275
Rp276
ag121
(g124
S'\x1d\xa1C\xae\xf7o\xe7?'
p277
tp278
Rp279
ag121
(g124
S'\xc9nt\x9c\x8cW\xe5?'
p280
tp281
Rp282
abababag38
(g39
g40
Ntp283
Rp284
(lp285
g109
ag38
(g53
g40
Ntp286
Rp287
(lp288
g38
(g57
g40
Ntp289
Rp290
(lp291
g121
(g124
S'r\x961\x7f-\xaf\xe0?'
p292
tp293
Rp294
ag121
(g124
S'\x9f\xbc\xebc0\xc1\xd2\xbf'
p295
tp296
Rp297
ag121
(g124
S'+\x0e\x01\xff\x89l\xdf?'
p298
tp299
Rp300
abag38
(g61
g40
Ntp301
Rp302
(lp303
g121
(g124
S'\x01wG\xf8\x901\xac\xbf'
p304
tp305
Rp306
ag121
(g124
S'k\xe7B\xec\x839\xc0?'
p307
tp308
Rp309
ag121
(g124
S'\x8ef\xd6EQ\x99\xe6?'
p310
tp311
Rp312
ag121
(g124
S'\xa8yt\xcdW8\xe6?'
p313
tp314
Rp315
abababag38
(g39
g40
Ntp316
Rp317
(lp318
g109
ag38
(g53
g40
Ntp319
Rp320
(lp321
g38
(g57
g40
Ntp322
Rp323
(lp324
g121
(g124
S'\x10 \xed\xa1\x03:\xe0?'
p325
tp326
Rp327
ag121
(g124
S'Z\x94n\xc8\xa5\xdd\xd2\xbf'
p328
tp329
Rp330
ag121
(g124
S'\x07/\xeb\xfa\xaa\x1e\xdf?'
p331
tp332
Rp333
abag38
(g61
g40
Ntp334
Rp335
(lp336
g121
(g124
S'\xd17\x82\xac\xc9\x1d\xaf\xbf'
p337
tp338
Rp339
ag121
(g124
S'a\x98\xc4/h\xf0\xc4?'
p340
tp341
Rp342
ag121
(g124
S'\xcev,Q\xea)\xe6?'
p343
tp344
Rp345
ag121
(g124
S'\xae\xc2\x9f\xf0de\xe6?'
p346
tp347
Rp348
abababag38
(g39
g40
Ntp349
Rp350
(lp351
g109
ag38
(g53
g40
Ntp352
Rp353
(lp354
g38
(g57
g40
Ntp355
Rp356
(lp357
g121
(g124
S']q\xc6?\xb3\xd1\xe0?'
p358
tp359
Rp360
ag121
(g124
S'z\xe2V\xaa\x90\x89\xd0\xbf'
p361
tp362
Rp363
ag121
(g124
S'\xd9\x04`\x9f{)\xdf?'
p364
tp365
Rp366
abag38
(g61
g40
Ntp367
Rp368
(lp369
g121
(g124
S'\xda\xcf\xbc\xd2:\x19\xae\xbf'
p370
tp371
Rp372
ag121
(g124
S'*\x8a\x9a`\xa9_\xc4?'
p373
tp374
Rp375
ag121
(g124
S'`\xe0\xb8\x00D\xed\xe6?'
p376
tp377
Rp378
ag121
(g124
S'\x8e\xcd^\xb0S\xa7\xe5?'
p379
tp380
Rp381
abababag38
(g39
g40
Ntp382
Rp383
(lp384
g109
ag38
(g53
g40
Ntp385
Rp386
(lp387
g38
(g57
g40
Ntp388
Rp389
(lp390
g121
(g124
S'g\xa6p.7D\xe2?'
p391
tp392
Rp393
ag121
(g124
S'l\x12\xad\x91\x8c[\xcc\xbf'
p394
tp395
Rp396
ag121
(g124
S'\xb5\xad\xb3\xaf\xcc\x9e\xe1?'
p397
tp398
Rp399
abag38
(g61
g40
Ntp400
Rp401
(lp402
g121
(g124
S'~k\x17\xbdZ\xc7\xc4\xbf'
p403
tp404
Rp405
ag121
(g124
S'\xc1t\xa5\xe6\x04\x1d\xd0?'
p406
tp407
Rp408
ag121
(g124
S'\xccy\xe6\xc7\x15\xad\xe7?'
p409
tp410
Rp411
ag121
(g124
S'\xcd|\xde\x80\x8aF\xe3?'
p412
tp413
Rp414
abababag38
(g39
g40
Ntp415
Rp416
(lp417
g109
ag38
(g53
g40
Ntp418
Rp419
(lp420
g38
(g57
g40
Ntp421
Rp422
(lp423
g121
(g124
S'\x81\xcf\xeb\x08\xce\x04\xe3?'
p424
tp425
Rp426
ag121
(g124
S'\x1fue\xfdv\xe1\xb9\xbf'
p427
tp428
Rp429
ag121
(g124
S'\xa2)"{\xc4\x7f\xe6?'
p430
tp431
Rp432
abag38
(g61
g40
Ntp433
Rp434
(lp435
g121
(g124
S'\xa6<\x1d4\xea\xc7\xd5\xbf'
p436
tp437
Rp438
ag121
(g124
S'\xc8\xef\xc7\x1d\xf7a\xda?'
p439
tp440
Rp441
ag121
(g124
S'\xab5\xe2\xd8\xb6"\xe7?'
p442
tp443
Rp444
ag121
(g124
S'\x92\xb0\xd1Jb\x02\xdc?'
p445
tp446
Rp447
abababag38
(g39
g40
Ntp448
Rp449
(lp450
g109
ag38
(g53
g40
Ntp451
Rp452
(lp453
g38
(g57
g40
Ntp454
Rp455
(lp456
g121
(g124
S'\x80\xf1\x95?\x00+\xe3?'
p457
tp458
Rp459
ag121
(g124
S'\xc8\xf7i2\xcd\xd4\xb7\xbf'
p460
tp461
Rp462
ag121
(g124
S'\x0e\xe6\x16Q\xc6\x94\xe6?'
p463
tp464
Rp465
abag38
(g61
g40
Ntp466
Rp467
(lp468
g121
(g124
S'\x03\xe7\xc5>\xa5E\xd7\xbf'
p469
tp470
Rp471
ag121
(g124
S'\xc5\xdb\x86\xfb\xa2^\xd9?'
p472
tp473
Rp474
ag121
(g124
S't\x91M\xb8A\x9c\xe6?'
p475
tp476
Rp477
ag121
(g124
S'%\xb2 \x99\xfdl\xdd?'
p478
tp479
Rp480
abababag38
(g39
g40
Ntp481
Rp482
(lp483
g109
ag38
(g53
g40
Ntp484
Rp485
(lp486
g38
(g57
g40
Ntp487
Rp488
(lp489
g121
(g124
S'\xeb3:O\xeb\xc5\xe2?'
p490
tp491
Rp492
ag121
(g124
S'\x8c\x88#\xfc\xdd[\xb6\xbf'
p493
tp494
Rp495
ag121
(g124
S'\xc16R\xecPD\xe6?'
p496
tp497
Rp498
abag38
(g61
g40
Ntp499
Rp500
(lp501
g121
(g124
S'\xf3+P<\xaa\t\xd6\xbf'
p502
tp503
Rp504
ag121
(g124
S'H;\x82e\t\x0c\xd9?'
p505
tp506
Rp507
ag121
(g124
S'\xe349\x8d\xb4\x8c\xe6?'
p508
tp509
Rp510
ag121
(g124
S'\x1b\xd9\xfdfw\xce\xde?'
p511
tp512
Rp513
abababag38
(g39
g40
Ntp514
Rp515
(lp516
g109
ag38
(g53
g40
Ntp517
Rp518
(lp519
g38
(g57
g40
Ntp520
Rp521
(lp522
g121
(g124
S'\xf1\xe1L\xbe \xfc\xe0?'
p523
tp524
Rp525
ag121
(g124
S"Z\xe6'z@\xbd\xc8\xbf"
p526
tp527
Rp528
ag121
(g124
S'-`\x88\xad\xdcb\xe3?'
p529
tp530
Rp531
abag38
(g61
g40
Ntp532
Rp533
(lp534
g121
(g124
S'\x87\xfeQ:v\xed\xc6\xbf'
p535
tp536
Rp537
ag121
(g124
S'\t\x10]\x1d\xcc\xf4\xd5?'
p538
tp539
Rp540
ag121
(g124
S'\x1bxSX\xf8j\xe4?'
p541
tp542
Rp543
ag121
(g124
S'M\xbd\x00\xfc\x15M\xe5?'
p544
tp545
Rp546
abababag38
(g39
g40
Ntp547
Rp548
(lp549
g109
ag38
(g53
g40
Ntp550
Rp551
(lp552
g38
(g57
g40
Ntp553
Rp554
(lp555
g121
(g124
S'n\xdf\x14\x18\xdc>\xe1?'
p556
tp557
Rp558
ag121
(g124
S'\x03\x8d\x07\xe2a\x8a\xcc\xbf'
p559
tp560
Rp561
ag121
(g124
S'\xe9\xeb\xa5|\xab\xa2\xe2?'
p562
tp563
Rp564
abag38
(g61
g40
Ntp565
Rp566
(lp567
g121
(g124
S'\xf2\xf9\xce\x90\x1f\xde\xc4\xbf'
p568
tp569
Rp570
ag121
(g124
S"'K\x1c\x1f9\xd6\xd2?"
p571
tp572
Rp573
ag121
(g124
S'\xc2\x8c\xf7\x0b\xf1g\xe4?'
p574
tp575
Rp576
ag121
(g124
S'\x8a\nX\xbau,\xe6?'
p577
tp578
Rp579
abababag38
(g39
g40
Ntp580
Rp581
(lp582
g109
ag38
(g53
g40
Ntp583
Rp584
(lp585
g38
(g57
g40
Ntp586
Rp587
(lp588
g121
(g124
S'f\x1c\xc0\xe1\x00h\xdf?'
p589
tp590
Rp591
ag121
(g124
S'\xa5\xc0k\xbe\xc4B\xd1\xbf'
p592
tp593
Rp594
ag121
(g124
S'#$Z\xe3\xa9\xc4\xdd?'
p595
tp596
Rp597
abag38
(g61
g40
Ntp598
Rp599
(lp600
g121
(g124
S'\xe9\xec\xda\xb7Z\xee\xa7\xbf'
p601
tp602
Rp603
ag121
(g124
S'|}:\xef?{\xc6?'
p604
tp605
Rp606
ag121
(g124
S'F\xfe6\xde\x9b\x17\xe4?'
p607
tp608
Rp609
ag121
(g124
S'\x12\xad{6\xa07\xe8?'
p610
tp611
Rp612
abababag38
(g39
g40
Ntp613
Rp614
(lp615
g109
ag38
(g53
g40
Ntp616
Rp617
(lp618
g38
(g57
g40
Ntp619
Rp620
(lp621
g121
(g124
S'\x98\x15"F\xdd\xe6\xde?'
p622
tp623
Rp624
ag121
(g124
S'rg\xda\xf0c\x04\xd2\xbf'
p625
tp626
Rp627
ag121
(g124
S'\x0b\x1dj\x12\x948\xdc?'
p628
tp629
Rp630
abag38
(g61
g40
Ntp631
Rp632
(lp633
g121
(g124
S'*\x06\xcf4\x8f,\x9a\xbf'
p634
tp635
Rp636
ag121
(g124
S'-\x17*\xf4\x8f\xec\xbd?'
p637
tp638
Rp639
ag121
(g124
S':\x1df\xa2X\xc5\xe3?'
p640
tp641
Rp642
ag121
(g124
S'\x11\xcc rb\xde\xe8?'
p643
tp644
Rp645
abababag38
(g39
g40
Ntp646
Rp647
(lp648
g109
ag38
(g53
g40
Ntp649
Rp650
(lp651
g38
(g57
g40
Ntp652
Rp653
(lp654
g121
(g124
S'\xde\x7f\x98Q\x07<\xde?'
p655
tp656
Rp657
ag121
(g124
S'\x05`M\xce\xf9\xd7\xd1\xbf'
p658
tp659
Rp660
ag121
(g124
S'\xa1%W"j|\xdc?'
p661
tp662
Rp663
abag38
(g61
g40
Ntp664
Rp665
(lp666
g121
(g124
S's\xf7\xc2\x9f\xdb\xd6C\xbf'
p667
tp668
Rp669
ag121
(g124
S'\xb8\xb1 2H\x8a\xbe?'
p670
tp671
Rp672
ag121
(g124
S'\xdb\x91\x90\xb4\x0b\xa3\xe4?'
p673
tp674
Rp675
ag121
(g124
S'\xdc\xfd\xeak\x1b(\xe8?'
p676
tp677
Rp678
abababag38
(g39
g40
Ntp679
Rp680
(lp681
g109
ag38
(g53
g40
Ntp682
Rp683
(lp684
g38
(g57
g40
Ntp685
Rp686
(lp687
g121
(g124
S',(s/#\xd5\xdd?'
p688
tp689
Rp690
ag121
(g124
S'\xfd\xc7yO\xff\xb5\xd1\xbf'
p691
tp692
Rp693
ag121
(g124
S'\x8e\xde\x1e\x91(\xe8\xdc?'
p694
tp695
Rp696
abag38
(g61
g40
Ntp697
Rp698
(lp699
g121
(g124
S'\x94\xe4\xc0u\xech\x99?'
p700
tp701
Rp702
ag121
(g124
S'\x94\x9dp\xad\x985\xbd?'
p703
tp704
Rp705
ag121
(g124
S'kX\xf7 \xf6K\xe5?'
p706
tp707
Rp708
ag121
(g124
S'Q\xebo\x0b\n\x97\xe7?'
p709
tp710
Rp711
abababag38
(g39
g40
Ntp712
Rp713
(lp714
g109
ag38
(g53
g40
Ntp715
Rp716
(lp717
g38
(g57
g40
Ntp718
Rp719
(lp720
g121
(g124
S'\xc6\xc56g\xbb\x98\xde?'
p721
tp722
Rp723
ag121
(g124
S'\t\xc19\x98\xeb\xd5\xd1\xbf'
p724
tp725
Rp726
ag121
(g124
S'H7{B0\xc5\xdc?'
p727
tp728
Rp729
abag38
(g61
g40
Ntp730
Rp731
(lp732
g121
(g124
S'L\x19\xf9\\x\x01o?'
p733
tp734
Rp735
ag121
(g124
S'\xa1\xd4\x8c/4\x9d\xb9?'
p736
tp737
Rp738
ag121
(g124
S'\xb2\xcf\xb0Q\xbaE\xe4?'
p739
tp740
Rp741
ag121
(g124
S'M\x04\xb0\x18 \x8d\xe8?'
p742
tp743
Rp744
abababasS'RLAB'
p745
(lp746
g38
(g39
g40
Ntp747
Rp748
(lp749
g38
(g44
g40
Ntp750
Rp751
(lp752
I0
ag38
(g48
g40
Ntp753
Rp754
(lp755
I1627
aI33000000
abaS'/base_link'
p756
abag38
(g53
g40
Ntp757
Rp758
(lp759
g38
(g57
g40
Ntp760
Rp761
(lp762
F0.3608732962143377
aF-0.05555982006840394
aF0.5720916165585321
abag38
(g61
g40
Ntp763
Rp764
(lp765
F-0.05707103541645489
aF-0.026534082402433275
aF-0.22724457120075695
aF0.9718018029656761
abababag38
(g39
g40
Ntp766
Rp767
(lp768
g38
(g44
g40
Ntp769
Rp770
(lp771
I0
ag38
(g48
g40
Ntp772
Rp773
(lp774
I1627
aI529000000
abaS'/base_link'
p775
abag38
(g53
g40
Ntp776
Rp777
(lp778
g38
(g57
g40
Ntp779
Rp780
(lp781
F0.3572756353919946
aF-0.058441748428288164
aF0.5872096742383004
abag38
(g61
g40
Ntp782
Rp783
(lp784
F-0.034277185198742496
aF-0.06095755217257355
aF-0.23332387059744303
aF0.9698810353942419
abababag38
(g39
g40
Ntp785
Rp786
(lp787
g38
(g44
g40
Ntp788
Rp789
(lp790
I0
ag38
(g48
g40
Ntp791
Rp792
(lp793
I1627
aI563000000
abaS'/base_link'
p794
abag38
(g53
g40
Ntp795
Rp796
(lp797
g38
(g57
g40
Ntp798
Rp799
(lp800
F0.3555547363317792
aF-0.05889312817950859
aF0.5944582353447072
abag38
(g61
g40
Ntp801
Rp802
(lp803
F0.0023682154086625985
aF-0.09409209221762617
aF-0.23400621554762677
aF0.967668414707727
abababag38
(g39
g40
Ntp804
Rp805
(lp806
g38
(g44
g40
Ntp807
Rp808
(lp809
I0
ag38
(g48
g40
Ntp810
Rp811
(lp812
I1627
aI590000000
abaS'/base_link'
p813
abag38
(g53
g40
Ntp814
Rp815
(lp816
g38
(g57
g40
Ntp817
Rp818
(lp819
F0.35020679839868435
aF-0.0613342942376926
aF0.6130846297764138
abag38
(g61
g40
Ntp820
Rp821
(lp822
F0.017982591512010104
aF-0.12901591678336502
aF-0.2376682887828893
aF0.9625722331991886
abababag38
(g39
g40
Ntp823
Rp824
(lp825
g38
(g44
g40
Ntp826
Rp827
(lp828
I0
ag38
(g48
g40
Ntp829
Rp830
(lp831
I1627
aI642000000
abaS'/base_link'
p832
abag38
(g53
g40
Ntp833
Rp834
(lp835
g38
(g57
g40
Ntp836
Rp837
(lp838
F0.3398666265169269
aF-0.06381617866408548
aF0.6462105595873668
abag38
(g61
g40
Ntp839
Rp840
(lp841
F0.0026936907956960727
aF-0.16429586268459478
aF-0.24215151366116935
aF0.9562229122784218
abababag38
(g39
g40
Ntp842
Rp843
(lp844
g38
(g44
g40
Ntp845
Rp846
(lp847
I0
ag38
(g48
g40
Ntp848
Rp849
(lp850
I1627
aI697000000
abaS'/base_link'
p851
abag38
(g53
g40
Ntp852
Rp853
(lp854
g38
(g57
g40
Ntp855
Rp856
(lp857
F0.33325094004244254
aF-0.06475279342270159
aF0.6627876137086037
abag38
(g61
g40
Ntp858
Rp859
(lp860
F0.02112409855896871
aF-0.19897753559852108
aF-0.2428795882674313
aF0.9491950370657514
abababag38
(g39
g40
Ntp861
Rp862
(lp863
g38
(g44
g40
Ntp864
Rp865
(lp866
I0
ag38
(g48
g40
Ntp867
Rp868
(lp869
I1627
aI771000000
abaS'/base_link'
p870
abag38
(g53
g40
Ntp871
Rp872
(lp873
g38
(g57
g40
Ntp874
Rp875
(lp876
F0.32546036442239545
aF-0.06472667521977005
aF0.681759907968572
abag38
(g61
g40
Ntp877
Rp878
(lp879
F0.03359684895052275
aF-0.2338424877580389
aF-0.24095126283209287
aF0.9413455431452081
abababag38
(g39
g40
Ntp880
Rp881
(lp882
g38
(g44
g40
Ntp883
Rp884
(lp885
I0
ag38
(g48
g40
Ntp886
Rp887
(lp888
I1627
aI832000000
abaS'/base_link'
p889
abag38
(g53
g40
Ntp890
Rp891
(lp892
g38
(g57
g40
Ntp893
Rp894
(lp895
F0.31569640649751834
aF-0.06452440060092099
aF0.7030666970889875
abag38
(g61
g40
Ntp896
Rp897
(lp898
F0.03908739832937194
aF-0.26773463187599394
aF-0.23970164912628242
aF0.9323805347561733
abababag38
(g39
g40
Ntp899
Rp900
(lp901
g38
(g44
g40
Ntp902
Rp903
(lp904
I0
ag38
(g48
g40
Ntp905
Rp906
(lp907
I1627
aI894000000
abaS'/base_link'
p908
abag38
(g53
g40
Ntp909
Rp910
(lp911
g38
(g57
g40
Ntp912
Rp913
(lp914
F0.30426587132783744
aF-0.06270961112378977
aF0.726403592961532
abag38
(g61
g40
Ntp915
Rp916
(lp917
F0.041798288855593835
aF-0.30273623344851364
aF-0.23669309759026613
aF0.9222689702897285
abababag38
(g39
g40
Ntp918
Rp919
(lp920
g38
(g44
g40
Ntp921
Rp922
(lp923
I0
ag38
(g48
g40
Ntp924
Rp925
(lp926
I1627
aI976000000
abaS'/base_link'
p927
abag38
(g53
g40
Ntp928
Rp929
(lp930
g38
(g57
g40
Ntp931
Rp932
(lp933
F0.2912608364816133
aF-0.05888119957078518
aF0.7510186727459243
abag38
(g61
g40
Ntp934
Rp935
(lp936
F0.038593159413602286
aF-0.33667115514793033
aF-0.23252501971547204
aF0.9116442379262614
abababag38
(g39
g40
Ntp937
Rp938
(lp939
g38
(g44
g40
Ntp940
Rp941
(lp942
I0
ag38
(g48
g40
Ntp943
Rp944
(lp945
I1628
aI46000000
abaS'/base_link'
p946
abag38
(g53
g40
Ntp947
Rp948
(lp949
g38
(g57
g40
Ntp950
Rp951
(lp952
F0.2785915493553028
aF-0.05509274006890953
aF0.7726347122028343
abag38
(g61
g40
Ntp953
Rp954
(lp955
F0.04108898964717477
aF-0.3703419403795609
aF-0.22668690449231768
aF0.8998730963071221
abababag38
(g39
g40
Ntp956
Rp957
(lp958
g38
(g44
g40
Ntp959
Rp960
(lp961
I0
ag38
(g48
g40
Ntp962
Rp963
(lp964
I1628
aI159000000
abaS'/base_link'
p965
abag38
(g53
g40
Ntp966
Rp967
(lp968
g38
(g57
g40
Ntp969
Rp970
(lp971
F0.29092097202719114
aF-0.05861732508059317
aF0.7515890079373211
abag38
(g61
g40
Ntp972
Rp973
(lp974
F0.038372236925845786
aF-0.3369661733083928
aF-0.23272527700788254
aF0.9114934530323349
abababag38
(g39
g40
Ntp975
Rp976
(lp977
g38
(g44
g40
Ntp978
Rp979
(lp980
I0
ag38
(g48
g40
Ntp981
Rp982
(lp983
I1628
aI189000000
abaS'/base_link'
p984
abag38
(g53
g40
Ntp985
Rp986
(lp987
g38
(g57
g40
Ntp988
Rp989
(lp990
F0.30180961418850527
aF-0.06142134150831252
aF0.7321590265349168
abag38
(g61
g40
Ntp991
Rp992
(lp993
F0.032369702227196206
aF-0.30463681632946893
aF-0.23819323904819195
aF0.9216358247084901
abababag38
(g39
g40
Ntp994
Rp995
(lp996
g38
(g44
g40
Ntp997
Rp998
(lp999
I0
ag38
(g48
g40
Ntp1000
Rp1001
(lp1002
I1628
aI251000000
abaS'/base_link'
p1003
abag38
(g53
g40
Ntp1004
Rp1005
(lp1006
g38
(g57
g40
Ntp1007
Rp1008
(lp1009
F0.31300463641481446
aF-0.0635758018810176
aF0.7099610881499272
abag38
(g61
g40
Ntp1010
Rp1011
(lp1012
F0.027394057086734005
aF-0.2695863590441911
aF-0.24125804508158408
aF0.9318622839975002
abababag38
(g39
g40
Ntp1013
Rp1014
(lp1015
g38
(g44
g40
Ntp1016
Rp1017
(lp1018
I0
ag38
(g48
g40
Ntp1019
Rp1020
(lp1021
I1628
aI315000000
abaS'/base_link'
p1022
abag38
(g53
g40
Ntp1023
Rp1024
(lp1025
g38
(g57
g40
Ntp1026
Rp1027
(lp1028
F0.3240475446975692
aF-0.06463742461256018
aF0.6861416821693224
abag38
(g61
g40
Ntp1029
Rp1030
(lp1031
F0.026342213565702988
aF-0.23481664261881374
aF-0.24246203099744632
aF0.9409460110220355
abababag38
(g39
g40
Ntp1032
Rp1033
(lp1034
g38
(g44
g40
Ntp1035
Rp1036
(lp1037
I0
ag38
(g48
g40
Ntp1038
Rp1039
(lp1040
I1628
aI337000000
abaS'/base_link'
p1041
abag38
(g53
g40
Ntp1042
Rp1043
(lp1044
g38
(g57
g40
Ntp1045
Rp1046
(lp1047
F0.333471299087638
aF-0.06503115901427875
aF0.6614590563111821
abag38
(g61
g40
Ntp1048
Rp1049
(lp1050
F0.024637941924804924
aF-0.19932122549970346
aF-0.24308651090153705
aF0.9489852312342502
abababag38
(g39
g40
Ntp1051
Rp1052
(lp1053
g38
(g44
g40
Ntp1054
Rp1055
(lp1056
I0
ag38
(g48
g40
Ntp1057
Rp1058
(lp1059
I1628
aI376000000
abaS'/base_link'
p1060
abag38
(g53
g40
Ntp1061
Rp1062
(lp1063
g38
(g57
g40
Ntp1064
Rp1065
(lp1066
F0.34281075050367094
aF-0.06382905131344213
aF0.6362396451683754
abag38
(g61
g40
Ntp1067
Rp1068
(lp1069
F0.021580987849292545
aF-0.16278745735480812
aF-0.24131673212897511
aF0.9564521626751636
abababag38
(g39
g40
Ntp1070
Rp1071
(lp1072
g38
(g44
g40
Ntp1073
Rp1074
(lp1075
I0
ag38
(g48
g40
Ntp1076
Rp1077
(lp1078
I1628
aI447000000
abaS'/base_link'
p1079
abag38
(g53
g40
Ntp1080
Rp1081
(lp1082
g38
(g57
g40
Ntp1083
Rp1084
(lp1085
F0.35117084547140826
aF-0.061394410589444365
aF0.6102294521161361
abag38
(g61
g40
Ntp1086
Rp1087
(lp1088
F0.019804627035360525
aF-0.126411604143375
aF-0.2369788356882055
aF0.963051875301508
abababag38
(g39
g40
Ntp1089
Rp1090
(lp1091
g38
(g44
g40
Ntp1092
Rp1093
(lp1094
I0
ag38
(g48
g40
Ntp1095
Rp1096
(lp1097
I1628
aI504000000
abaS'/base_link'
p1098
abag38
(g53
g40
Ntp1099
Rp1100
(lp1101
g38
(g57
g40
Ntp1102
Rp1103
(lp1104
F0.3578397762991971
aF-0.05766887710948358
aF0.5855796636693484
abag38
(g61
g40
Ntp1105
Rp1106
(lp1107
F0.017503284715984894
aF-0.09163912949303828
aF-0.23212974769862987
aF0.9682002299128418
abababag38
(g39
g40
Ntp1108
Rp1109
(lp1110
g38
(g44
g40
Ntp1111
Rp1112
(lp1113
I0
ag38
(g48
g40
Ntp1114
Rp1115
(lp1116
I1628
aI571000000
abaS'/base_link'
p1117
abag38
(g53
g40
Ntp1118
Rp1119
(lp1120
g38
(g57
g40
Ntp1121
Rp1122
(lp1123
F0.3636426394605364
aF-0.053090274077262474
aF0.5607040473967868
abag38
(g61
g40
Ntp1124
Rp1125
(lp1126
F0.01384128343309311
aF-0.056126703581115635
aF-0.2257787006911283
aF0.9724619223045539
abababag38
(g39
g40
Ntp1127
Rp1128
(lp1129
g38
(g44
g40
Ntp1130
Rp1131
(lp1132
I0
ag38
(g48
g40
Ntp1133
Rp1134
(lp1135
I1628
aI778000000
abaS'/base_link'
p1136
abag38
(g53
g40
Ntp1137
Rp1138
(lp1139
g38
(g57
g40
Ntp1140
Rp1141
(lp1142
F0.34844093630094475
aF-0.0622692441813464
aF0.6201139326905816
abag38
(g61
g40
Ntp1143
Rp1144
(lp1145
F-0.04994658544557199
aF-0.09481205886763067
aF-0.2412812106373085
aF0.964520289827541
abababag38
(g39
g40
Ntp1146
Rp1147
(lp1148
g38
(g44
g40
Ntp1149
Rp1150
(lp1151
I0
ag38
(g48
g40
Ntp1152
Rp1153
(lp1154
I1628
aI834000000
abaS'/base_link'
p1155
abag38
(g53
g40
Ntp1156
Rp1157
(lp1158
g38
(g57
g40
Ntp1159
Rp1160
(lp1161
F0.3349111500456592
aF-0.06309110985500489
aF0.6628429525489673
abag38
(g61
g40
Ntp1162
Rp1163
(lp1164
F-0.08114776955801252
aF-0.1316437627902445
aF-0.2508298966850491
aF0.9555989337285559
abababag38
(g39
g40
Ntp1165
Rp1166
(lp1167
g38
(g44
g40
Ntp1168
Rp1169
(lp1170
I0
ag38
(g48
g40
Ntp1171
Rp1172
(lp1173
I1628
aI892000000
abaS'/base_link'
p1174
abag38
(g53
g40
Ntp1175
Rp1176
(lp1177
g38
(g57
g40
Ntp1178
Rp1179
(lp1180
F0.31768674248228557
aF-0.06224972178590879
aF0.7050214316736367
abag38
(g61
g40
Ntp1181
Rp1182
(lp1183
F-0.11395143750025886
aF-0.16775012847748655
aF-0.26333793318435894
aF0.9431479720773414
abababag38
(g39
g40
Ntp1184
Rp1185
(lp1186
g38
(g44
g40
Ntp1187
Rp1188
(lp1189
I0
ag38
(g48
g40
Ntp1190
Rp1191
(lp1192
I1628
aI929000000
abaS'/base_link'
p1193
abag38
(g53
g40
Ntp1194
Rp1195
(lp1196
g38
(g57
g40
Ntp1197
Rp1198
(lp1199
F0.2990858597669046
aF-0.056452666830049195
aF0.7454572914790069
abag38
(g61
g40
Ntp1200
Rp1201
(lp1202
F-0.14557128317442486
aF-0.203446521894846
aF-0.2721034766370266
aF0.9291814743342037
abababag38
(g39
g40
Ntp1203
Rp1204
(lp1205
g38
(g44
g40
Ntp1206
Rp1207
(lp1208
I0
ag38
(g48
g40
Ntp1209
Rp1210
(lp1211
I1628
aI964000000
abaS'/base_link'
p1212
abag38
(g53
g40
Ntp1213
Rp1214
(lp1215
g38
(g57
g40
Ntp1216
Rp1217
(lp1218
F0.29468706834641145
aF-0.05454614067633718
aF0.7540695081162004
abag38
(g61
g40
Ntp1219
Rp1220
(lp1221
F-0.1123950741380373
aF-0.2393746067367554
aF-0.2652752214194235
aF0.9271980381018958
abababag38
(g39
g40
Ntp1222
Rp1223
(lp1224
g38
(g44
g40
Ntp1225
Rp1226
(lp1227
I0
ag38
(g48
g40
Ntp1228
Rp1229
(lp1230
I1628
aI986000000
abaS'/base_link'
p1231
abag38
(g53
g40
Ntp1232
Rp1233
(lp1234
g38
(g57
g40
Ntp1235
Rp1236
(lp1237
F0.2908074744348321
aF-0.054213689085304745
aF0.759849666417637
abag38
(g61
g40
Ntp1238
Rp1239
(lp1240
F-0.07427171098107303
aF-0.27435572197319513
aF-0.25667411113159955
aF0.9237591955933723
abababag38
(g39
g40
Ntp1241
Rp1242
(lp1243
g38
(g44
g40
Ntp1244
Rp1245
(lp1246
I0
ag38
(g48
g40
Ntp1247
Rp1248
(lp1249
I1629
aI118000000
abaS'/base_link'
p1250
abag38
(g53
g40
Ntp1251
Rp1252
(lp1253
g38
(g57
g40
Ntp1254
Rp1255
(lp1256
F0.32482222693159063
aF-0.06507185946878587
aF0.6837700376285714
abag38
(g61
g40
Ntp1257
Rp1258
(lp1259
F0.03092886383616552
aF-0.23476602468886199
aF-0.2414629467196938
aF0.9410759610121995
abababag38
(g39
g40
Ntp1260
Rp1261
(lp1262
g38
(g44
g40
Ntp1263
Rp1264
(lp1265
I0
ag38
(g48
g40
Ntp1266
Rp1267
(lp1268
I1629
aI169000000
abaS'/base_link'
p1269
abag38
(g53
g40
Ntp1270
Rp1271
(lp1272
g38
(g57
g40
Ntp1273
Rp1274
(lp1275
F0.3397554530563415
aF-0.06509703037437746
aF0.6424732288679704
abag38
(g61
g40
Ntp1276
Rp1277
(lp1278
F0.0626092699843352
aF-0.19794568610393173
aF-0.23865343603850125
aF0.9486527932451837
abababag38
(g39
g40
Ntp1279
Rp1280
(lp1281
g38
(g44
g40
Ntp1282
Rp1283
(lp1284
I0
ag38
(g48
g40
Ntp1285
Rp1286
(lp1287
I1629
aI233000000
abaS'/base_link'
p1288
abag38
(g53
g40
Ntp1289
Rp1290
(lp1291
g38
(g57
g40
Ntp1292
Rp1293
(lp1294
F0.3530012373798574
aF-0.06073131214794403
aF0.5988360675949929
abag38
(g61
g40
Ntp1295
Rp1296
(lp1297
F0.09668358271334838
aF-0.15972894302641977
aF-0.2336725814625015
aF0.9542201393106438
abababasS'RLAA'
p1298
(lp1299
g38
(g39
g40
Ntp1300
Rp1301
(lp1302
g38
(g44
g40
Ntp1303
Rp1304
(lp1305
I0
ag38
(g48
g40
Ntp1306
Rp1307
(lp1308
I954
aI532000000
abaS'/base_link'
p1309
abag38
(g53
g40
Ntp1310
Rp1311
(lp1312
g38
(g57
g40
Ntp1313
Rp1314
(lp1315
F0.4976980064476436
aF-0.05812066072820432
aF0.5005602279605047
abag38
(g61
g40
Ntp1316
Rp1317
(lp1318
F-0.08413446076464709
aF0.10429257648097015
aF-0.018091607000686516
aF0.9908164031539525
abababag38
(g39
g40
Ntp1319
Rp1320
(lp1321
g38
(g44
g40
Ntp1322
Rp1323
(lp1324
I0
ag38
(g48
g40
Ntp1325
Rp1326
(lp1327
I987
aI568000000
abaS'/base_link'
p1328
abag38
(g53
g40
Ntp1329
Rp1330
(lp1331
g38
(g57
g40
Ntp1332
Rp1333
(lp1334
F0.5028096079772019
aF-0.04271074796716076
aF0.500021205221006
abag38
(g61
g40
Ntp1335
Rp1336
(lp1337
F-0.0735413445213273
aF0.12359705861344655
aF-0.02274756356986358
aF0.9893421986854369
abababag38
(g39
g40
Ntp1338
Rp1339
(lp1340
g38
(g44
g40
Ntp1341
Rp1342
(lp1343
I0
ag38
(g48
g40
Ntp1344
Rp1345
(lp1346
I1020
aI312000000
abaS'/base_link'
p1347
abag38
(g53
g40
Ntp1348
Rp1349
(lp1350
g38
(g57
g40
Ntp1351
Rp1352
(lp1353
F0.508927559094816
aF-0.037400411961453967
aF0.5032043207444753
abag38
(g61
g40
Ntp1354
Rp1355
(lp1356
F-0.05870343271558696
aF0.14123605938731879
aF-0.03635347452587083
aF0.987565039582733
abababag38
(g39
g40
Ntp1357
Rp1358
(lp1359
g38
(g44
g40
Ntp1360
Rp1361
(lp1362
I0
ag38
(g48
g40
Ntp1363
Rp1364
(lp1365
I1051
aI709000000
abaS'/base_link'
p1366
abag38
(g53
g40
Ntp1367
Rp1368
(lp1369
g38
(g57
g40
Ntp1370
Rp1371
(lp1372
F0.519528565634195
aF0.05716070968255485
aF0.5120879897162057
abag38
(g61
g40
Ntp1373
Rp1374
(lp1375
F-0.10186038918041873
aF0.10752267936248501
aF-0.08765539593323408
aF0.9850786090980322
abababag38
(g39
g40
Ntp1376
Rp1377
(lp1378
g38
(g44
g40
Ntp1379
Rp1380
(lp1381
I0
ag38
(g48
g40
Ntp1382
Rp1383
(lp1384
I1078
aI83000000
abaS'/base_link'
p1385
abag38
(g53
g40
Ntp1386
Rp1387
(lp1388
g38
(g57
g40
Ntp1389
Rp1390
(lp1391
F0.5202055825681318
aF0.08052685634914339
aF0.5066542605188711
abag38
(g61
g40
Ntp1392
Rp1393
(lp1394
F-0.11322487672235315
aF0.11343829473574076
aF-0.08093538622472359
aF0.983748618212656
abababag38
(g39
g40
Ntp1395
Rp1396
(lp1397
g38
(g44
g40
Ntp1398
Rp1399
(lp1400
I0
ag38
(g48
g40
Ntp1401
Rp1402
(lp1403
I1104
aI197000000
abaS'/base_link'
p1404
abag38
(g53
g40
Ntp1405
Rp1406
(lp1407
g38
(g57
g40
Ntp1408
Rp1409
(lp1410
F0.5207462549081442
aF0.08844585288112898
aF0.5062700312853465
abag38
(g61
g40
Ntp1411
Rp1412
(lp1413
F-0.1077013052550985
aF0.13736440230545907
aF-0.08290739037661372
aF0.9811512699102783
abababag38
(g39
g40
Ntp1414
Rp1415
(lp1416
g38
(g44
g40
Ntp1417
Rp1418
(lp1419
I0
ag38
(g48
g40
Ntp1420
Rp1421
(lp1422
I1129
aI400000000
abaS'/base_link'
p1423
abag38
(g53
g40
Ntp1424
Rp1425
(lp1426
g38
(g57
g40
Ntp1427
Rp1428
(lp1429
F0.5226667894513165
aF0.10459900365295353
aF0.51263197145428
abag38
(g61
g40
Ntp1430
Rp1431
(lp1432
F-0.09522392996981444
aF0.14686096219068615
aF-0.0803650408936736
aF0.981277596375097
abababag38
(g39
g40
Ntp1433
Rp1434
(lp1435
g38
(g44
g40
Ntp1436
Rp1437
(lp1438
I0
ag38
(g48
g40
Ntp1439
Rp1440
(lp1441
I1154
aI744000000
abaS'/base_link'
p1442
abag38
(g53
g40
Ntp1443
Rp1444
(lp1445
g38
(g57
g40
Ntp1446
Rp1447
(lp1448
F0.5174900485894096
aF0.1333901555379147
aF0.5171026238257169
abag38
(g61
g40
Ntp1449
Rp1450
(lp1451
F-0.09282375953246737
aF0.15500387663409376
aF-0.07147519401035939
aF0.9809428344892697
abababag38
(g39
g40
Ntp1452
Rp1453
(lp1454
g38
(g44
g40
Ntp1455
Rp1456
(lp1457
I0
ag38
(g48
g40
Ntp1458
Rp1459
(lp1460
I1184
aI604000000
abaS'/base_link'
p1461
abag38
(g53
g40
Ntp1462
Rp1463
(lp1464
g38
(g57
g40
Ntp1465
Rp1466
(lp1467
F0.5257102717614006
aF0.1458083693178201
aF0.5138352861442635
abag38
(g61
g40
Ntp1468
Rp1469
(lp1470
F-0.09916968929407718
aF0.15178733314933673
aF-0.07603790120503752
aF0.9804816244076486
abababag38
(g39
g40
Ntp1471
Rp1472
(lp1473
g38
(g44
g40
Ntp1474
Rp1475
(lp1476
I0
ag38
(g48
g40
Ntp1477
Rp1478
(lp1479
I1209
aI642000000
abaS'/base_link'
p1480
abag38
(g53
g40
Ntp1481
Rp1482
(lp1483
g38
(g57
g40
Ntp1484
Rp1485
(lp1486
F0.5356646357970279
aF0.15804835534532002
aF0.5068932579558689
abag38
(g61
g40
Ntp1487
Rp1488
(lp1489
F-0.11202600213421665
aF0.14180598912321205
aF-0.0842591449174477
aF0.9799191970731017
abababag38
(g39
g40
Ntp1490
Rp1491
(lp1492
g38
(g44
g40
Ntp1493
Rp1494
(lp1495
I0
ag38
(g48
g40
Ntp1496
Rp1497
(lp1498
I1238
aI311000000
abaS'/base_link'
p1499
abag38
(g53
g40
Ntp1500
Rp1501
(lp1502
g38
(g57
g40
Ntp1503
Rp1504
(lp1505
F0.5387836950731879
aF0.17917767283563155
aF0.5014375030035957
abag38
(g61
g40
Ntp1506
Rp1507
(lp1508
F-0.12347972437895534
aF0.13337127102613722
aF-0.0786213367955585
aF0.9801956677789639
abababag38
(g39
g40
Ntp1509
Rp1510
(lp1511
g38
(g44
g40
Ntp1512
Rp1513
(lp1514
I0
ag38
(g48
g40
Ntp1515
Rp1516
(lp1517
I1262
aI353000000
abaS'/base_link'
p1518
abag38
(g53
g40
Ntp1519
Rp1520
(lp1521
g38
(g57
g40
Ntp1522
Rp1523
(lp1524
F0.5320894298415042
aF0.20381817187375545
aF0.5001263775952126
abag38
(g61
g40
Ntp1525
Rp1526
(lp1527
F-0.11059445517740724
aF0.12702079671695396
aF-0.06104376572542952
aF0.9838232780085362
abababag38
(g39
g40
Ntp1528
Rp1529
(lp1530
g38
(g44
g40
Ntp1531
Rp1532
(lp1533
I0
ag38
(g48
g40
Ntp1534
Rp1535
(lp1536
I1291
aI696000000
abaS'/base_link'
p1537
abag38
(g53
g40
Ntp1538
Rp1539
(lp1540
g38
(g57
g40
Ntp1541
Rp1542
(lp1543
F0.524087043441757
aF0.20444107913831955
aF0.5091354199901431
abag38
(g61
g40
Ntp1544
Rp1545
(lp1546
F-0.10467459570557666
aF0.11203543423227871
aF-0.06026715920237555
aF0.9863362307103671
abababag38
(g39
g40
Ntp1547
Rp1548
(lp1549
g38
(g44
g40
Ntp1550
Rp1551
(lp1552
I0
ag38
(g48
g40
Ntp1553
Rp1554
(lp1555
I1321
aI94000000
abaS'/base_link'
p1556
abag38
(g53
g40
Ntp1557
Rp1558
(lp1559
g38
(g57
g40
Ntp1560
Rp1561
(lp1562
F0.5245986309136288
aF0.17415710061549347
aF0.5114390600571587
abag38
(g61
g40
Ntp1563
Rp1564
(lp1565
F-0.0991098673819275
aF0.12837095111357152
aF-0.08770905946011777
aF0.9828556628449343
abababag38
(g39
g40
Ntp1566
Rp1567
(lp1568
g38
(g44
g40
Ntp1569
Rp1570
(lp1571
I0
ag38
(g48
g40
Ntp1572
Rp1573
(lp1574
I1350
aI624000000
abaS'/base_link'
p1575
abag38
(g53
g40
Ntp1576
Rp1577
(lp1578
g38
(g57
g40
Ntp1579
Rp1580
(lp1581
F0.5134642554095504
aF0.14755684087661053
aF0.5153631409499398
abag38
(g61
g40
Ntp1582
Rp1583
(lp1584
F-0.08574231749625548
aF0.1626294344794011
aF-0.09098234669838198
aF0.978734966485073
abababag38
(g39
g40
Ntp1585
Rp1586
(lp1587
g38
(g44
g40
Ntp1588
Rp1589
(lp1590
I0
ag38
(g48
g40
Ntp1591
Rp1592
(lp1593
I1380
aI253000000
abaS'/base_link'
p1594
abag38
(g53
g40
Ntp1595
Rp1596
(lp1597
g38
(g57
g40
Ntp1598
Rp1599
(lp1600
F0.5208245475198963
aF0.13036667510277133
aF0.5227381836377062
abag38
(g61
g40
Ntp1601
Rp1602
(lp1603
F-0.07585543864740137
aF0.1383558568461092
aF-0.10415423551544348
aF0.9819651238858653
abababag38
(g39
g40
Ntp1604
Rp1605
(lp1606
g38
(g44
g40
Ntp1607
Rp1608
(lp1609
I0
ag38
(g48
g40
Ntp1610
Rp1611
(lp1612
I1409
aI510000000
abaS'/base_link'
p1613
abag38
(g53
g40
Ntp1614
Rp1615
(lp1616
g38
(g57
g40
Ntp1617
Rp1618
(lp1619
F0.5294596232061388
aF0.08708126965844981
aF0.5240086357666401
abag38
(g61
g40
Ntp1620
Rp1621
(lp1622
F-0.06653909740286389
aF0.13825356079183007
aF-0.1434524761361741
aF0.9776911007754916
abababag38
(g39
g40
Ntp1623
Rp1624
(lp1625
g38
(g44
g40
Ntp1626
Rp1627
(lp1628
I0
ag38
(g48
g40
Ntp1629
Rp1630
(lp1631
I1433
aI879000000
abaS'/base_link'
p1632
abag38
(g53
g40
Ntp1633
Rp1634
(lp1635
g38
(g57
g40
Ntp1636
Rp1637
(lp1638
F0.5243453856630957
aF0.07490340913207835
aF0.5284170732442335
abag38
(g61
g40
Ntp1639
Rp1640
(lp1641
F-0.05815061600874997
aF0.13135190786695114
aF-0.1318824885870028
aF0.9808018104396086
abababag38
(g39
g40
Ntp1642
Rp1643
(lp1644
g38
(g44
g40
Ntp1645
Rp1646
(lp1647
I0
ag38
(g48
g40
Ntp1648
Rp1649
(lp1650
I1463
aI582000000
abaS'/base_link'
p1651
abag38
(g53
g40
Ntp1652
Rp1653
(lp1654
g38
(g57
g40
Ntp1655
Rp1656
(lp1657
F0.5119475572557756
aF0.061159809238742605
aF0.5199955218522627
abag38
(g61
g40
Ntp1658
Rp1659
(lp1660
F-0.06850605097207538
aF0.14411859969099858
aF-0.1222562825514155
aF0.9795867248896474
abababag38
(g39
g40
Ntp1661
Rp1662
(lp1663
g38
(g44
g40
Ntp1664
Rp1665
(lp1666
I0
ag38
(g48
g40
Ntp1667
Rp1668
(lp1669
I1487
aI682000000
abaS'/base_link'
p1670
abag38
(g53
g40
Ntp1671
Rp1672
(lp1673
g38
(g57
g40
Ntp1674
Rp1675
(lp1676
F0.5058357191764439
aF0.04849869726160186
aF0.5228418566050135
abag38
(g61
g40
Ntp1677
Rp1678
(lp1679
F-0.06423742582911669
aF0.13857613823715945
aF-0.12111322453222202
aF0.9808169013009166
abababag38
(g39
g40
Ntp1680
Rp1681
(lp1682
g38
(g44
g40
Ntp1683
Rp1684
(lp1685
I0
ag38
(g48
g40
Ntp1686
Rp1687
(lp1688
I1511
aI202000000
abaS'/base_link'
p1689
abag38
(g53
g40
Ntp1690
Rp1691
(lp1692
g38
(g57
g40
Ntp1693
Rp1694
(lp1695
F0.5055682904520352
aF0.03845398413661735
aF0.5262248457472865
abag38
(g61
g40
Ntp1696
Rp1697
(lp1698
F-0.06433566801998053
aF0.11627515679340805
aF-0.1242120556958028
aF0.9833170266770093
abababag38
(g39
g40
Ntp1699
Rp1700
(lp1701
g38
(g44
g40
Ntp1702
Rp1703
(lp1704
I0
ag38
(g48
g40
Ntp1705
Rp1706
(lp1707
I1540
aI8000000
abaS'/base_link'
p1708
abag38
(g53
g40
Ntp1709
Rp1710
(lp1711
g38
(g57
g40
Ntp1712
Rp1713
(lp1714
F0.5030638416396899
aF0.014562487838610583
aF0.5184498383693651
abag38
(g61
g40
Ntp1715
Rp1716
(lp1717
F-0.0716479245930021
aF0.10968128714285497
aF-0.11911229223997973
aF0.9841995996694674
abababasS'LLAD'
p1718
(lp1719
g38
(g39
g40
Ntp1720
Rp1721
(lp1722
g38
(g44
g40
Ntp1723
Rp1724
(lp1725
I0
ag38
(g48
g40
Ntp1726
Rp1727
(lp1728
I147
aI289000000
abaS'/base_link'
p1729
abag38
(g53
g40
Ntp1730
Rp1731
(lp1732
g38
(g57
g40
Ntp1733
Rp1734
(lp1735
F0.3242550067062675
aF-0.0752096288977306
aF0.6723931973391564
abag38
(g61
g40
Ntp1736
Rp1737
(lp1738
F-0.10158967737293953
aF-0.4880238708183467
aF-0.04478163608662168
aF0.8657406332338485
abababag38
(g39
g40
Ntp1739
Rp1740
(lp1741
g38
(g44
g40
Ntp1742
Rp1743
(lp1744
I0
ag38
(g48
g40
Ntp1745
Rp1746
(lp1747
I147
aI605000000
abaS'/base_link'
p1748
abag38
(g53
g40
Ntp1749
Rp1750
(lp1751
g38
(g57
g40
Ntp1752
Rp1753
(lp1754
F0.3259824779937879
aF-0.0894982020194488
aF0.670857158852045
abag38
(g61
g40
Ntp1755
Rp1756
(lp1757
F-0.07891696419626473
aF-0.4738857603024828
aF-0.08783723172571958
aF0.8726333821642085
abababag38
(g39
g40
Ntp1758
Rp1759
(lp1760
g38
(g44
g40
Ntp1761
Rp1762
(lp1763
I0
ag38
(g48
g40
Ntp1764
Rp1765
(lp1766
I147
aI870000000
abaS'/base_link'
p1767
abag38
(g53
g40
Ntp1768
Rp1769
(lp1770
g38
(g57
g40
Ntp1771
Rp1772
(lp1773
F0.32724558289768546
aF-0.10374701415805977
aF0.6679565970902805
abag38
(g61
g40
Ntp1774
Rp1775
(lp1776
F-0.05561940411462338
aF-0.4588458174380306
aF-0.13098010699220422
aF0.8770468683473366
abababag38
(g39
g40
Ntp1777
Rp1778
(lp1779
g38
(g44
g40
Ntp1780
Rp1781
(lp1782
I0
ag38
(g48
g40
Ntp1783
Rp1784
(lp1785
I148
aI144000000
abaS'/base_link'
p1786
abag38
(g53
g40
Ntp1787
Rp1788
(lp1789
g38
(g57
g40
Ntp1790
Rp1791
(lp1792
F0.3242859838003253
aF-0.12254974842079891
aF0.6648555334591117
abag38
(g61
g40
Ntp1793
Rp1794
(lp1795
F-0.04442615772337283
aF-0.4464711538193561
aF-0.17422670932082943
aF0.8765471345434802
abababag38
(g39
g40
Ntp1796
Rp1797
(lp1798
g38
(g44
g40
Ntp1799
Rp1800
(lp1801
I0
ag38
(g48
g40
Ntp1802
Rp1803
(lp1804
I148
aI472000000
abaS'/base_link'
p1805
abag38
(g53
g40
Ntp1806
Rp1807
(lp1808
g38
(g57
g40
Ntp1809
Rp1810
(lp1811
F0.31687964779920547
aF-0.14455293238003186
aF0.662480016033392
abag38
(g61
g40
Ntp1812
Rp1813
(lp1814
F-0.04414811091055323
aF-0.43714481383275167
aF-0.21847148368074584
aF0.8713355076321014
abababag38
(g39
g40
Ntp1815
Rp1816
(lp1817
g38
(g44
g40
Ntp1818
Rp1819
(lp1820
I0
ag38
(g48
g40
Ntp1821
Rp1822
(lp1823
I148
aI719000000
abaS'/base_link'
p1824
abag38
(g53
g40
Ntp1825
Rp1826
(lp1827
g38
(g57
g40
Ntp1828
Rp1829
(lp1830
F0.3062124812698351
aF-0.1671990469250358
aF0.6611253946192307
abag38
(g61
g40
Ntp1831
Rp1832
(lp1833
F-0.05132945377854931
aF-0.4299968492782758
aF-0.2598939895578584
aF0.8630892833173468
abababag38
(g39
g40
Ntp1834
Rp1835
(lp1836
g38
(g44
g40
Ntp1837
Rp1838
(lp1839
I0
ag38
(g48
g40
Ntp1840
Rp1841
(lp1842
I148
aI979000000
abaS'/base_link'
p1843
abag38
(g53
g40
Ntp1844
Rp1845
(lp1846
g38
(g57
g40
Ntp1847
Rp1848
(lp1849
F0.290670568717006
aF-0.19151714884686266
aF0.6600071732438215
abag38
(g61
g40
Ntp1850
Rp1851
(lp1852
F-0.06542949487200521
aF-0.42546230244865046
aF-0.30266551399071334
aF0.8503495734323765
abababag38
(g39
g40
Ntp1853
Rp1854
(lp1855
g38
(g44
g40
Ntp1856
Rp1857
(lp1858
I0
ag38
(g48
g40
Ntp1859
Rp1860
(lp1861
I149
aI295000000
abaS'/base_link'
p1862
abag38
(g53
g40
Ntp1863
Rp1864
(lp1865
g38
(g57
g40
Ntp1866
Rp1867
(lp1868
F0.26392470833726095
aF-0.19134082239051659
aF0.7048779396486139
abag38
(g61
g40
Ntp1869
Rp1870
(lp1871
F-0.15239829004026254
aF-0.4395469921840055
aF-0.30446511442960006
aF0.8311884244563131
abababag38
(g39
g40
Ntp1872
Rp1873
(lp1874
g38
(g44
g40
Ntp1875
Rp1876
(lp1877
I0
ag38
(g48
g40
Ntp1878
Rp1879
(lp1880
I149
aI548000000
abaS'/base_link'
p1881
abag38
(g53
g40
Ntp1882
Rp1883
(lp1884
g38
(g57
g40
Ntp1885
Rp1886
(lp1887
F0.2547888360876731
aF-0.1770367921591456
aF0.736322195188193
abag38
(g61
g40
Ntp1888
Rp1889
(lp1890
F-0.19874516165068268
aF-0.4463784561698715
aF-0.2927725994180726
aF0.821906831470472
abababag38
(g39
g40
Ntp1891
Rp1892
(lp1893
g38
(g44
g40
Ntp1894
Rp1895
(lp1896
I0
ag38
(g48
g40
Ntp1897
Rp1898
(lp1899
I149
aI867000000
abaS'/base_link'
p1900
abag38
(g53
g40
Ntp1901
Rp1902
(lp1903
g38
(g57
g40
Ntp1904
Rp1905
(lp1906
F0.24449448059150497
aF-0.15920553893432451
aF0.7695520647393732
abag38
(g61
g40
Ntp1907
Rp1908
(lp1909
F-0.24821069926004233
aF-0.4514309159408269
aF-0.28456396726849886
aF0.808470732579776
abababag38
(g39
g40
Ntp1910
Rp1911
(lp1912
g38
(g44
g40
Ntp1913
Rp1914
(lp1915
I0
ag38
(g48
g40
Ntp1916
Rp1917
(lp1918
I150
aI153000000
abaS'/base_link'
p1919
abag38
(g53
g40
Ntp1920
Rp1921
(lp1922
g38
(g57
g40
Ntp1923
Rp1924
(lp1925
F0.25614976551351
aF-0.1526950419165987
aF0.7797394156631052
abag38
(g61
g40
Ntp1926
Rp1927
(lp1928
F-0.30123572880900856
aF-0.3735519336288226
aF-0.28395559861719205
aF0.8301115627342058
abababag38
(g39
g40
Ntp1929
Rp1930
(lp1931
g38
(g44
g40
Ntp1932
Rp1933
(lp1934
I0
ag38
(g48
g40
Ntp1935
Rp1936
(lp1937
I150
aI466000000
abaS'/base_link'
p1938
abag38
(g53
g40
Ntp1939
Rp1940
(lp1941
g38
(g57
g40
Ntp1942
Rp1943
(lp1944
F0.2681074465428905
aF-0.15475460642152933
aF0.7761943749234691
abag38
(g61
g40
Ntp1945
Rp1946
(lp1947
F-0.3086679599280034
aF-0.3432513052833463
aF-0.27791177234897485
aF0.8424177578404998
abababag38
(g39
g40
Ntp1948
Rp1949
(lp1950
g38
(g44
g40
Ntp1951
Rp1952
(lp1953
I0
ag38
(g48
g40
Ntp1954
Rp1955
(lp1956
I150
aI800000000
abaS'/base_link'
p1957
abag38
(g53
g40
Ntp1958
Rp1959
(lp1960
g38
(g57
g40
Ntp1961
Rp1962
(lp1963
F0.28282251522823687
aF-0.15395366985684655
aF0.7754153927847609
abag38
(g61
g40
Ntp1964
Rp1965
(lp1966
F-0.31322560148606515
aF-0.3258786822212188
aF-0.2640425917907162
aF0.8520412647095771
abababag38
(g39
g40
Ntp1967
Rp1968
(lp1969
g38
(g44
g40
Ntp1970
Rp1971
(lp1972
I0
ag38
(g48
g40
Ntp1973
Rp1974
(lp1975
I151
aI172000000
abaS'/base_link'
p1976
abag38
(g53
g40
Ntp1977
Rp1978
(lp1979
g38
(g57
g40
Ntp1980
Rp1981
(lp1982
F0.2985309216447236
aF-0.1510041748187076
aF0.7770080541787233
abag38
(g61
g40
Ntp1983
Rp1984
(lp1985
F-0.3174875195151416
aF-0.3154488975565585
aF-0.24656970296426003
aF0.8595912107290249
abababag38
(g39
g40
Ntp1986
Rp1987
(lp1988
g38
(g44
g40
Ntp1989
Rp1990
(lp1991
I0
ag38
(g48
g40
Ntp1992
Rp1993
(lp1994
I151
aI526000000
abaS'/base_link'
p1995
abag38
(g53
g40
Ntp1996
Rp1997
(lp1998
g38
(g57
g40
Ntp1999
Rp2000
(lp2001
F0.31678114702114657
aF-0.1446546802425548
aF0.7812094618801452
abag38
(g61
g40
Ntp2002
Rp2003
(lp2004
F-0.3216115022024056
aF-0.3135313977789396
aF-0.22211318721705664
aF0.8654073239360625
abababag38
(g39
g40
Ntp2005
Rp2006
(lp2007
g38
(g44
g40
Ntp2008
Rp2009
(lp2010
I0
ag38
(g48
g40
Ntp2011
Rp2012
(lp2013
I151
aI857000000
abaS'/base_link'
p2014
abag38
(g53
g40
Ntp2015
Rp2016
(lp2017
g38
(g57
g40
Ntp2018
Rp2019
(lp2020
F0.3342038836337245
aF-0.13672641687184886
aF0.7867618290433642
abag38
(g61
g40
Ntp2021
Rp2022
(lp2023
F-0.3254099847380313
aF-0.3166947675149228
aF-0.19715611958442533
aF0.8688741166428396
abababag38
(g39
g40
Ntp2024
Rp2025
(lp2026
g38
(g44
g40
Ntp2027
Rp2028
(lp2029
I0
ag38
(g48
g40
Ntp2030
Rp2031
(lp2032
I152
aI234000000
abaS'/base_link'
p2033
abag38
(g53
g40
Ntp2034
Rp2035
(lp2036
g38
(g57
g40
Ntp2037
Rp2038
(lp2039
F0.3516613302107991
aF-0.1266055433925425
aF0.7939160152856458
abag38
(g61
g40
Ntp2040
Rp2041
(lp2042
F-0.3293004508267149
aF-0.32330950468433184
aF-0.1697199628175277
aF0.8707624885623584
abababag38
(g39
g40
Ntp2043
Rp2044
(lp2045
g38
(g44
g40
Ntp2046
Rp2047
(lp2048
I0
ag38
(g48
g40
Ntp2049
Rp2050
(lp2051
I152
aI677000000
abaS'/base_link'
p2052
abag38
(g53
g40
Ntp2053
Rp2054
(lp2055
g38
(g57
g40
Ntp2056
Rp2057
(lp2058
F0.3679257760848931
aF-0.11592511619842628
aF0.8001277403185021
abag38
(g61
g40
Ntp2059
Rp2060
(lp2061
F-0.33322104000809155
aF-0.3280289057903992
aF-0.14469343370858906
aF0.8720232713084539
abababag38
(g39
g40
Ntp2062
Rp2063
(lp2064
g38
(g44
g40
Ntp2065
Rp2066
(lp2067
I0
ag38
(g48
g40
Ntp2068
Rp2069
(lp2070
I153
aI3000000
abaS'/base_link'
p2071
abag38
(g53
g40
Ntp2072
Rp2073
(lp2074
g38
(g57
g40
Ntp2075
Rp2076
(lp2077
F0.381480859520412
aF-0.10819957483939185
aF0.8018023429048444
abag38
(g61
g40
Ntp2078
Rp2079
(lp2080
F-0.341837627663466
aF-0.3182371242267931
aF-0.12645875845887924
aF0.8751459029706492
abababasS'LLAB'
p2081
(lp2082
g38
(g39
g40
Ntp2083
Rp2084
(lp2085
g38
(g44
g40
Ntp2086
Rp2087
(lp2088
I0
ag38
(g48
g40
Ntp2089
Rp2090
(lp2091
I153
aI788000000
abaS'/base_link'
p2092
abag38
(g53
g40
Ntp2093
Rp2094
(lp2095
g38
(g57
g40
Ntp2096
Rp2097
(lp2098
F0.323946495137192
aF-0.07562484741810088
aF0.6725520557223986
abag38
(g61
g40
Ntp2099
Rp2100
(lp2101
F-0.10252263712646358
aF-0.48769685581870187
aF-0.046444081250184316
aF0.8657273433466302
abababag38
(g39
g40
Ntp2102
Rp2103
(lp2104
g38
(g44
g40
Ntp2105
Rp2106
(lp2107
I0
ag38
(g48
g40
Ntp2108
Rp2109
(lp2110
I154
aI196000000
abaS'/base_link'
p2111
abag38
(g53
g40
Ntp2112
Rp2113
(lp2114
g38
(g57
g40
Ntp2115
Rp2116
(lp2117
F0.31836909761754933
aF-0.11247192118669004
aF0.6767332634044252
abag38
(g61
g40
Ntp2118
Rp2119
(lp2120
F-0.103944459249164
aF-0.48838097125227237
aF-0.04815361453295971
aF0.8650784968530295
abababag38
(g39
g40
Ntp2121
Rp2122
(lp2123
g38
(g44
g40
Ntp2124
Rp2125
(lp2126
I0
ag38
(g48
g40
Ntp2127
Rp2128
(lp2129
I154
aI527000000
abaS'/base_link'
p2130
abag38
(g53
g40
Ntp2131
Rp2132
(lp2133
g38
(g57
g40
Ntp2134
Rp2135
(lp2136
F0.31108043032424687
aF-0.14682576247063295
aF0.6817687421813369
abag38
(g61
g40
Ntp2137
Rp2138
(lp2139
F-0.10313430207431139
aF-0.4878690034260261
aF-0.047142411832248064
aF0.8655199271180182
abababag38
(g39
g40
Ntp2140
Rp2141
(lp2142
g38
(g44
g40
Ntp2143
Rp2144
(lp2145
I0
ag38
(g48
g40
Ntp2146
Rp2147
(lp2148
I154
aI986000000
abaS'/base_link'
p2149
abag38
(g53
g40
Ntp2150
Rp2151
(lp2152
g38
(g57
g40
Ntp2153
Rp2154
(lp2155
F0.3187525261681118
aF-0.1551701350343783
aF0.6927308367419894
abag38
(g61
g40
Ntp2156
Rp2157
(lp2158
F-0.09881720939266568
aF-0.4867673537374184
aF-0.04504574190100233
aF0.8667546271003722
abababag38
(g39
g40
Ntp2159
Rp2160
(lp2161
g38
(g44
g40
Ntp2162
Rp2163
(lp2164
I0
ag38
(g48
g40
Ntp2165
Rp2166
(lp2167
I155
aI314000000
abaS'/base_link'
p2168
abag38
(g53
g40
Ntp2169
Rp2170
(lp2171
g38
(g57
g40
Ntp2172
Rp2173
(lp2174
F0.33042129251871544
aF-0.1559956997964801
aF0.7056670488867979
abag38
(g61
g40
Ntp2175
Rp2176
(lp2177
F-0.09601962548630848
aF-0.4866179320437402
aF-0.04133758010449406
aF0.867337549173358
abababag38
(g39
g40
Ntp2178
Rp2179
(lp2180
g38
(g44
g40
Ntp2181
Rp2182
(lp2183
I0
ag38
(g48
g40
Ntp2184
Rp2185
(lp2186
I155
aI662000000
abaS'/base_link'
p2187
abag38
(g53
g40
Ntp2188
Rp2189
(lp2190
g38
(g57
g40
Ntp2191
Rp2192
(lp2193
F0.34140200076047034
aF-0.15650003412200425
aF0.7190293693139344
abag38
(g61
g40
Ntp2194
Rp2195
(lp2196
F-0.09343737336507339
aF-0.4859687404442996
aF-0.03948821130506532
aF0.8680694221878474
abababag38
(g39
g40
Ntp2197
Rp2198
(lp2199
g38
(g44
g40
Ntp2200
Rp2201
(lp2202
I0
ag38
(g48
g40
Ntp2203
Rp2204
(lp2205
I156
aI16000000
abaS'/base_link'
p2206
abag38
(g53
g40
Ntp2207
Rp2208
(lp2209
g38
(g57
g40
Ntp2210
Rp2211
(lp2212
F0.3523685584831117
aF-0.15664633948104795
aF0.7337851581030285
abag38
(g61
g40
Ntp2213
Rp2214
(lp2215
F-0.0920383111572379
aF-0.48558981044063504
aF-0.03777103556515644
aF0.8685072447296495
abababag38
(g39
g40
Ntp2216
Rp2217
(lp2218
g38
(g44
g40
Ntp2219
Rp2220
(lp2221
I0
ag38
(g48
g40
Ntp2222
Rp2223
(lp2224
I156
aI348000000
abaS'/base_link'
p2225
abag38
(g53
g40
Ntp2226
Rp2227
(lp2228
g38
(g57
g40
Ntp2229
Rp2230
(lp2231
F0.36194026580229
aF-0.1564492167303604
aF0.7479802164157126
abag38
(g61
g40
Ntp2232
Rp2233
(lp2234
F-0.09183034476817477
aF-0.48553717188356743
aF-0.03658631434614294
aF0.8686093967380449
abababag38
(g39
g40
Ntp2235
Rp2236
(lp2237
g38
(g44
g40
Ntp2238
Rp2239
(lp2240
I0
ag38
(g48
g40
Ntp2241
Rp2242
(lp2243
I156
aI604000000
abaS'/base_link'
p2244
abag38
(g53
g40
Ntp2245
Rp2246
(lp2247
g38
(g57
g40
Ntp2248
Rp2249
(lp2250
F0.3716511396604923
aF-0.1557549977370658
aF0.7644991172799345
abag38
(g61
g40
Ntp2251
Rp2252
(lp2253
F-0.09276762175343917
aF-0.4857016541453918
aF-0.0360320350000008
aF0.8684409962504072
abababag38
(g39
g40
Ntp2254
Rp2255
(lp2256
g38
(g44
g40
Ntp2257
Rp2258
(lp2259
I0
ag38
(g48
g40
Ntp2260
Rp2261
(lp2262
I156
aI896000000
abaS'/base_link'
p2263
abag38
(g53
g40
Ntp2264
Rp2265
(lp2266
g38
(g57
g40
Ntp2267
Rp2268
(lp2269
F0.3801046424160878
aF-0.15483268186541205
aF0.7809711577347893
abag38
(g61
g40
Ntp2270
Rp2271
(lp2272
F-0.09432491074162769
aF-0.48581022758866854
aF-0.03718965522574454
aF0.868163673236804
abababag38
(g39
g40
Ntp2273
Rp2274
(lp2275
g38
(g44
g40
Ntp2276
Rp2277
(lp2278
I0
ag38
(g48
g40
Ntp2279
Rp2280
(lp2281
I157
aI278000000
abaS'/base_link'
p2282
abag38
(g53
g40
Ntp2283
Rp2284
(lp2285
g38
(g57
g40
Ntp2286
Rp2287
(lp2288
F0.3868023059344535
aF-0.15382948789660744
aF0.7962770855853195
abag38
(g61
g40
Ntp2289
Rp2290
(lp2291
F-0.09614978345610613
aF-0.4859235335019689
aF-0.0400361587480959
aF0.8677733832764185
abababag38
(g39
g40
Ntp2292
Rp2293
(lp2294
g38
(g44
g40
Ntp2295
Rp2296
(lp2297
I0
ag38
(g48
g40
Ntp2298
Rp2299
(lp2300
I157
aI610000000
abaS'/base_link'
p2301
abag38
(g53
g40
Ntp2302
Rp2303
(lp2304
g38
(g57
g40
Ntp2305
Rp2306
(lp2307
F0.3926132429767809
aF-0.15243630092408944
aF0.8119098575881081
abag38
(g61
g40
Ntp2308
Rp2309
(lp2310
F-0.09915044553746206
aF-0.4866930169071001
aF-0.04275312641862773
aF0.866874423792178
abababag38
(g39
g40
Ntp2311
Rp2312
(lp2313
g38
(g44
g40
Ntp2314
Rp2315
(lp2316
I0
ag38
(g48
g40
Ntp2317
Rp2318
(lp2319
I157
aI942000000
abaS'/base_link'
p2320
abag38
(g53
g40
Ntp2321
Rp2322
(lp2323
g38
(g57
g40
Ntp2324
Rp2325
(lp2326
F0.3973332729993309
aF-0.1509350384745489
aF0.8271595699275229
abag38
(g61
g40
Ntp2327
Rp2328
(lp2329
F-0.10231231347906626
aF-0.48754891223661206
aF-0.04668030124568574
aF0.8658228445606351
abababasS'RLAD'
p2330
(lp2331
g38
(g39
g40
Ntp2332
Rp2333
(lp2334
g38
(g44
g40
Ntp2335
Rp2336
(lp2337
I0
ag38
(g48
g40
Ntp2338
Rp2339
(lp2340
I1600
aI56000000
abaS'/base_link'
p2341
abag38
(g53
g40
Ntp2342
Rp2343
(lp2344
g38
(g57
g40
Ntp2345
Rp2346
(lp2347
F0.6341711269662327
aF-0.21608505591502042
aF0.47877087014618486
abag38
(g61
g40
Ntp2348
Rp2349
(lp2350
F-0.0039604742893410315
aF-0.14450812325922513
aF-0.07740784690535131
aF0.9864632492865498
abababag38
(g39
g40
Ntp2351
Rp2352
(lp2353
g38
(g44
g40
Ntp2354
Rp2355
(lp2356
I0
ag38
(g48
g40
Ntp2357
Rp2358
(lp2359
I1600
aI980000000
abaS'/base_link'
p2360
abag38
(g53
g40
Ntp2361
Rp2362
(lp2363
g38
(g57
g40
Ntp2364
Rp2365
(lp2366
F0.6540300937977395
aF-0.15177474006619365
aF0.4794169429657625
abag38
(g61
g40
Ntp2367
Rp2368
(lp2369
F0.0037134992814418966
aF-0.1450503573039753
aF-0.02410912997630271
aF0.9891235279887248
abababag38
(g39
g40
Ntp2370
Rp2371
(lp2372
g38
(g44
g40
Ntp2373
Rp2374
(lp2375
I0
ag38
(g48
g40
Ntp2376
Rp2377
(lp2378
I1601
aI37000000
abaS'/base_link'
p2379
abag38
(g53
g40
Ntp2380
Rp2381
(lp2382
g38
(g57
g40
Ntp2383
Rp2384
(lp2385
F0.6900264631259162
aF-0.044818319348091495
aF0.5055288620359968
abag38
(g61
g40
Ntp2386
Rp2387
(lp2388
F0.024737885555826816
aF-0.1705597206239675
aF0.0509039632729468
aF0.9837205930761069
abababag38
(g39
g40
Ntp2389
Rp2390
(lp2391
g38
(g44
g40
Ntp2392
Rp2393
(lp2394
I0
ag38
(g48
g40
Ntp2395
Rp2396
(lp2397
I1601
aI118000000
abaS'/base_link'
p2398
abag38
(g53
g40
Ntp2399
Rp2400
(lp2401
g38
(g57
g40
Ntp2402
Rp2403
(lp2404
F0.7085130130372026
aF0.08329407564944248
aF0.5384352114319868
abag38
(g61
g40
Ntp2405
Rp2406
(lp2407
F0.052984631978226907
aF-0.1979434762752885
aF0.13499981506888994
aF0.9694256335096321
abababasS'GRASP'
p2408
(lp2409
g3
(g4
(I0
tp2410
g6
tp2411
Rp2412
(I1
(I4
tp2413
g10
(S'f8'
p2414
I0
I1
tp2415
Rp2416
(I3
S'<'
p2417
NNNI-1
I-1
I0
tp2418
bI00
S'\x14\xfb]\x1a\x95\xff\xef?\x8dA\x99\xb1\xa0\xe5q?\x8d\x10Yy2\xa4\x82\xbf\xd9\x81\xfe\x18\x13\xdd\xc6\xbf'
p2419
tp2420
bag3
(g4
(I0
tp2421
g6
tp2422
Rp2423
(I1
(I4
tp2424
g2416
I00
S'\xa7\xf2.\xae\xdc\xdcq\xbfh\xc4\x85"\xeb\xff\xef?\x907\x84y\xfd\xbcN?\xa0\xe4\x8f\x0b\x03\xfa\x86\xbf'
p2425
tp2426
bag3
(g4
(I0
tp2427
g6
tp2428
Rp2429
(I1
(I4
tp2430
g2416
I00
S'^\x94\xe3pL\xa6\x82?B\xe5\xaeC\x9aoM\xbf\xc2_73\xa8\xff\xef?\xa8|\x81]N\xe9\xb1?'
p2431
tp2432
bag3
(g4
(I0
tp2433
g6
tp2434
Rp2435
(I1
(I4
tp2436
g2416
I00
S'\x00\x00\x00\x00\x00\x00\x00\x00\x00\x00\x00\x00\x00\x00\x00\x00\x00\x00\x00\x00\x00\x00\x00\x00\x00\x00\x00\x00\x00\x00\xf0?'
p2437
tp2438
basS'RLMR'
p2439
(lp2440
g38
(g39
g40
Ntp2441
Rp2442
(lp2443
g38
(g44
g40
Ntp2444
Rp2445
(lp2446
I11
ag38
(g48
g40
Ntp2447
Rp2448
(lp2449
I0
aI0
abaS'base_link'
p2450
abag38
(g53
g40
Ntp2451
Rp2452
(lp2453
g38
(g57
g40
Ntp2454
Rp2455
(lp2456
F0.6347810491514794
aF-0.21537103844277652
aF0.4788729053956491
abag38
(g61
g40
Ntp2457
Rp2458
(lp2459
F-0.003535106021627294
aF-0.1448431289263165
aF-0.07587118322291157
aF0.9865351157382112
abababag38
(g39
g40
Ntp2460
Rp2461
(lp2462
g2445
ag38
(g53
g40
Ntp2463
Rp2464
(lp2465
g38
(g57
g40
Ntp2466
Rp2467
(lp2468
g121
(g124
S'\xed\x1c\x06=a9\xe4?'
p2469
tp2470
Rp2471
ag121
(g124
S'\xfa\xdcf\xd2\x0b\x8b\xcb\xbf'
p2472
tp2473
Rp2474
ag121
(g124
S'\xfa\xfe\xeaB\xe3G\xdf?'
p2475
tp2476
Rp2477
abag38
(g61
g40
Ntp2478
Rp2479
(lp2480
g121
(g124
S'\xe7\x1f\xa0\xe9\xfc\x81x?'
p2481
tp2482
Rp2483
ag121
(g124
S'\xed\x8c\xc9\x95:@\xc7\xbf'
p2484
tp2485
Rp2486
ag121
(g124
S'\x03\x82\xdcR\xe1\xe8\xb2\xbf'
p2487
tp2488
Rp2489
ag121
(g124
S'H\xf4\xb5\x9a\xce`\xef?'
p2490
tp2491
Rp2492
abababag38
(g39
g40
Ntp2493
Rp2494
(lp2495
g2445
ag38
(g53
g40
Ntp2496
Rp2497
(lp2498
g38
(g57
g40
Ntp2499
Rp2500
(lp2501
g121
(g124
S'\xd3\xcf\x96\x16\xb9\x16\xe4?'
p2502
tp2503
Rp2504
ag121
(g124
S'\xf08\xc5]GD\xcc\xbf'
p2505
tp2506
Rp2507
ag121
(g124
S'm<R\x03\xb7\xd8\xdf?'
p2508
tp2509
Rp2510
abag38
(g61
g40
Ntp2511
Rp2512
(lp2513
g121
(g124
S'f\xa8\xb2\xba\xb6l\x98?'
p2514
tp2515
Rp2516
ag121
(g124
S'}3\xe0*M\xb6\xcb\xbf'
p2517
tp2518
Rp2519
ag121
(g124
S'MP\xe1}\xf7\x8b\xb7\xbf'
p2520
tp2521
Rp2522
ag121
(g124
S'Q\x95\x9a\xca\xbb\x17\xef?'
p2523
tp2524
Rp2525
abababag38
(g39
g40
Ntp2526
Rp2527
(lp2528
g2445
ag38
(g53
g40
Ntp2529
Rp2530
(lp2531
g38
(g57
g40
Ntp2532
Rp2533
(lp2534
g121
(g124
S'N_\x9cS\x15\xe7\xe3?'
p2535
tp2536
Rp2537
ag121
(g124
S'\xd0\xd8\xaa\x00v\xef\xcc\xbf'
p2538
tp2539
Rp2540
ag121
(g124
S'\x9a\x83\x92N\x8e(\xe0?'
p2541
tp2542
Rp2543
abag38
(g61
g40
Ntp2544
Rp2545
(lp2546
g121
(g124
S'T\\\x88\x7f\x88\xd7\xa3?'
p2547
tp2548
Rp2549
ag121
(g124
S'\xb3\x9a\xaf\x90\x95\x00\xd0\xbf'
p2550
tp2551
Rp2552
ag121
(g124
S'\x04\x8e\x06\x9dg\\\xbb\xbf'
p2553
tp2554
Rp2555
ag121
(g124
S'\xa8\x84\x97p\xed\xc4\xee?'
p2556
tp2557
Rp2558
abababag38
(g39
g40
Ntp2559
Rp2560
(lp2561
g2445
ag38
(g53
g40
Ntp2562
Rp2563
(lp2564
g38
(g57
g40
Ntp2565
Rp2566
(lp2567
g121
(g124
S'\x9a\xb6\xd0\xd7\xe9\xb7\xe3?'
p2568
tp2569
Rp2570
ag121
(g124
S'\xc1\xa9\xd9}z]\xcd\xbf'
p2571
tp2572
Rp2573
ag121
(g124
S'p\xb0jZ\x0es\xe0?'
p2574
tp2575
Rp2576
abag38
(g61
g40
Ntp2577
Rp2578
(lp2579
g121
(g124
S'\xb3<\x04\xa0Ox\xaa?'
p2580
tp2581
Rp2582
ag121
(g124
S'\xb66\xf3\x8f7y\xd2\xbf'
p2583
tp2584
Rp2585
ag121
(g124
S'\x83\xb8g\xe3\xd2\x03\xbe\xbf'
p2586
tp2587
Rp2588
ag121
(g124
S'i3\xfc\\\xbf\\\xee?'
p2589
tp2590
Rp2591
abababag38
(g39
g40
Ntp2592
Rp2593
(lp2594
g2445
ag38
(g53
g40
Ntp2595
Rp2596
(lp2597
g38
(g57
g40
Ntp2598
Rp2599
(lp2600
g121
(g124
S'\xb4m|5y\x85\xe3?'
p2601
tp2602
Rp2603
ag121
(g124
S'"\xe9K\xfa\xae\x86\xcd\xbf'
p2604
tp2605
Rp2606
ag121
(g124
S'\x88\xbf4\xd3\xd6\xb1\xe0?'
p2607
tp2608
Rp2609
abag38
(g61
g40
Ntp2610
Rp2611
(lp2612
g121
(g124
S'\xc4<h\x1c;\x83\xad?'
p2613
tp2614
Rp2615
ag121
(g124
S'G\x87\xc96\xfc\xad\xd4\xbf'
p2616
tp2617
Rp2618
ag121
(g124
S'\xe7l4O\x7f\x99\xbe\xbf'
p2619
tp2620
Rp2621
ag121
(g124
S'M>(C\xf8\xfb\xed?'
p2622
tp2623
Rp2624
abababag38
(g39
g40
Ntp2625
Rp2626
(lp2627
g2445
ag38
(g53
g40
Ntp2628
Rp2629
(lp2630
g38
(g57
g40
Ntp2631
Rp2632
(lp2633
g121
(g124
S'\xbb\xf4#\x84,U\xe3?'
p2634
tp2635
Rp2636
ag121
(g124
S'\xff\x1d\xba\x04\x98F\xcd\xbf'
p2637
tp2638
Rp2639
ag121
(g124
S'i~\x8f\x7f\xae\xf8\xe0?'
p2640
tp2641
Rp2642
abag38
(g61
g40
Ntp2643
Rp2644
(lp2645
g121
(g124
S'\x06\xb2\x07\x0c\xeee\xac?'
p2646
tp2647
Rp2648
ag121
(g124
S'\xf93\xda6\x0e\xf5\xd6\xbf'
p2649
tp2650
Rp2651
ag121
(g124
S'\xa5F\xbf\x81\x0b|\xbc\xbf'
p2652
tp2653
Rp2654
ag121
(g124
S'\xa5,v\x03\xb2\x9a\xed?'
p2655
tp2656
Rp2657
abababag38
(g39
g40
Ntp2658
Rp2659
(lp2660
g2445
ag38
(g53
g40
Ntp2661
Rp2662
(lp2663
g38
(g57
g40
Ntp2664
Rp2665
(lp2666
g121
(g124
S'~\x95]\xff\xbe!\xe3?'
p2667
tp2668
Rp2669
ag121
(g124
S'3\x0b\xa1\xe3\x1d\xa5\xcc\xbf'
p2670
tp2671
Rp2672
ag121
(g124
S'\xf9\xea\xce\x80!4\xe1?'
p2673
tp2674
Rp2675
abag38
(g61
g40
Ntp2676
Rp2677
(lp2678
g121
(g124
S'%\x9e\x8b\xf6\xcc\x1f\xa8?'
p2679
tp2680
Rp2681
ag121
(g124
S'(o\x0e\x88]\x13\xd9\xbf'
p2682
tp2683
Rp2684
ag121
(g124
S'\xc1\xd4}Y\x91V\xb8\xbf'
p2685
tp2686
Rp2687
ag121
(g124
S'\xd4\xf6\x0b\x0b\xbd>\xed?'
p2688
tp2689
Rp2690
abababag38
(g39
g40
Ntp2691
Rp2692
(lp2693
g2445
ag38
(g53
g40
Ntp2694
Rp2695
(lp2696
g38
(g57
g40
Ntp2697
Rp2698
(lp2699
g121
(g124
S'\x8e\xbd!n;\xe9\xe2?'
p2700
tp2701
Rp2702
ag121
(g124
S')R\x07R:\x05\xcc\xbf'
p2703
tp2704
Rp2705
ag121
(g124
S'\n\xd7\xaf\x0c\tr\xe1?'
p2706
tp2707
Rp2708
abag38
(g61
g40
Ntp2709
Rp2710
(lp2711
g121
(g124
S'\xd1p;\xd6eE\xa3?'
p2712
tp2713
Rp2714
ag121
(g124
S'\xde=\xee\xdf2=\xdb\xbf'
p2715
tp2716
Rp2717
ag121
(g124
S'\x12\xbb\xf4\xfb\xa2 \xb4\xbf'
p2718
tp2719
Rp2720
ag121
(g124
S'GU+|\x85\xd2\xec?'
p2721
tp2722
Rp2723
abababag38
(g39
g40
Ntp2724
Rp2725
(lp2726
g2445
ag38
(g53
g40
Ntp2727
Rp2728
(lp2729
g38
(g57
g40
Ntp2730
Rp2731
(lp2732
g121
(g124
S'>\x19p\xc1\xf4\xaa\xe2?'
p2733
tp2734
Rp2735
ag121
(g124
S"\xdc'z\xe9p\x8c\xcb\xbf"
p2736
tp2737
Rp2738
ag121
(g124
S'r\xeaU\xb1\xae\xa2\xe1?'
p2739
tp2740
Rp2741
abag38
(g61
g40
Ntp2742
Rp2743
(lp2744
g121
(g124
S'*d\x1c\x05\xd0_\x9f?'
p2745
tp2746
Rp2747
ag121
(g124
S'>\x12\xcd\xff\xf1L\xdd\xbf'
p2748
tp2749
Rp2750
ag121
(g124
S'\xacT\x06NK\x94\xb1\xbf'
p2751
tp2752
Rp2753
ag121
(g124
S'\xb1\xc2t\x14\xf4X\xec?'
p2754
tp2755
Rp2756
abababag38
(g39
g40
Ntp2757
Rp2758
(lp2759
g2445
ag38
(g53
g40
Ntp2760
Rp2761
(lp2762
g38
(g57
g40
Ntp2763
Rp2764
(lp2765
g121
(g124
S'\x0eIu\x0f\xd6f\xe2?'
p2766
tp2767
Rp2768
ag121
(g124
S';\xf5M\xad\xec \xcb\xbf'
p2769
tp2770
Rp2771
ag121
(g124
S'\xff\r\x8858\xd5\xe1?'
p2772
tp2773
Rp2774
abag38
(g61
g40
Ntp2775
Rp2776
(lp2777
g121
(g124
S'\xe2\xe7e\x08\xf1S\x96?'
p2778
tp2779
Rp2780
ag121
(g124
S'\x10\x93X\xdeZd\xdf\xbf'
p2781
tp2782
Rp2783
ag121
(g124
S')u\x9atv\x1e\xae\xbf'
p2784
tp2785
Rp2786
ag121
(g124
S')\x98\x04DR\xd0\xeb?'
p2787
tp2788
Rp2789
abababag38
(g39
g40
Ntp2790
Rp2791
(lp2792
g2445
ag38
(g53
g40
Ntp2793
Rp2794
(lp2795
g38
(g57
g40
Ntp2796
Rp2797
(lp2798
g121
(g124
S'\x02\x04V\xf2\xc3!\xe2?'
p2799
tp2800
Rp2801
ag121
(g124
S'\x07Z\x8c\x8cT\xc2\xca\xbf'
p2802
tp2803
Rp2804
ag121
(g124
S'\xc2,\xfe\xceY\x07\xe2?'
p2805
tp2806
Rp2807
abag38
(g61
g40
Ntp2808
Rp2809
(lp2810
g121
(g124
S'\xe4\xfc\xd62Zk\x84?'
p2811
tp2812
Rp2813
ag121
(g124
S'\xb1Ts\x96\xa5\x9d\xe0\xbf'
p2814
tp2815
Rp2816
ag121
(g124
S'\x02\x80\xf3)\xfeV\xa9\xbf'
p2817
tp2818
Rp2819
ag121
(g124
S'\xc7R\xce\xb0\xdeL\xeb?'
p2820
tp2821
Rp2822
abababag38
(g39
g40
Ntp2823
Rp2824
(lp2825
g2445
ag38
(g53
g40
Ntp2826
Rp2827
(lp2828
g38
(g57
g40
Ntp2829
Rp2830
(lp2831
g121
(g124
S':\xeb=\xa4\xdc\xc9\xe1?'
p2832
tp2833
Rp2834
ag121
(g124
S'M\x16\xeb\x88\x08\x12\xcb\xbf'
p2835
tp2836
Rp2837
ag121
(g124
S'A\xd7-\r\x00l\xe2?'
p2838
tp2839
Rp2840
abag38
(g61
g40
Ntp2841
Rp2842
(lp2843
g121
(g124
S'pxZJ\xb9\xf2\x90\xbf'
p2844
tp2845
Rp2846
ag121
(g124
S'\x91\xfc\xb2\xc0\xeeI\xe1\xbf'
p2847
tp2848
Rp2849
ag121
(g124
S'\n\xa4\xda\x94\xc7\xea\xa5\xbf'
p2850
tp2851
Rp2852
ag121
(g124
S'{H9\xac6\xe3\xea?'
p2853
tp2854
Rp2855
abababag38
(g39
g40
Ntp2856
Rp2857
(lp2858
g2445
ag38
(g53
g40
Ntp2859
Rp2860
(lp2861
g38
(g57
g40
Ntp2862
Rp2863
(lp2864
g121
(g124
S';\xcb\xe8.\xf1b\xe1?'
p2865
tp2866
Rp2867
ag121
(g124
S'\xbew\x1c\xf8\xe6\xde\xcb\xbf'
p2868
tp2869
Rp2870
ag121
(g124
S'}`\xb2m\x0c\xfa\xe2?'
p2871
tp2872
Rp2873
abag38
(g61
g40
Ntp2874
Rp2875
(lp2876
g121
(g124
S'JG\xf3\xca$>\xaa\xbf'
p2877
tp2878
Rp2879
ag121
(g124
S'\xf1s\nTn\xd6\xe1\xbf'
p2880
tp2881
Rp2882
ag121
(g124
S'\xb9\x1bn\x12\xed!\xa5\xbf'
p2883
tp2884
Rp2885
ag121
(g124
S'\xd6\x11\x19\xa3\xd1{\xea?'
p2886
tp2887
Rp2888
abababag38
(g39
g40
Ntp2889
Rp2890
(lp2891
g2445
ag38
(g53
g40
Ntp2892
Rp2893
(lp2894
g38
(g57
g40
Ntp2895
Rp2896
(lp2897
g121
(g124
S'\xca\xdc5c\xd0\\\xe1?'
p2898
tp2899
Rp2900
ag121
(g124
S'\xdai\xc5lc\xd3\xc9\xbf'
p2901
tp2902
Rp2903
ag121
(g124
S']\xac\x80\xa1,W\xe3?'
p2904
tp2905
Rp2906
abag38
(g61
g40
Ntp2907
Rp2908
(lp2909
g121
(g124
S'e\xe4.a\xee4\xb1\xbf'
p2910
tp2911
Rp2912
ag121
(g124
S'\x8d\x873\x13\xfc\x1f\xe2\xbf'
p2913
tp2914
Rp2915
ag121
(g124
S'\xb7,"\xe6%\xca\x96\xbf'
p2916
tp2917
Rp2918
ag121
(g124
S'\x91\x8d\xd6sJF\xea?'
p2919
tp2920
Rp2921
abababag38
(g39
g40
Ntp2922
Rp2923
(lp2924
g2445
ag38
(g53
g40
Ntp2925
Rp2926
(lp2927
g38
(g57
g40
Ntp2928
Rp2929
(lp2930
g121
(g124
S'\xe9R\xfa\x9e\x05\xf9\xe1?'
p2931
tp2932
Rp2933
ag121
(g124
S'\xc9\xa9\\\xb3\xe2\x93\xc7\xbf'
p2934
tp2935
Rp2936
ag121
(g124
S'EPm\xf2\xc4-\xe3?'
p2937
tp2938
Rp2939
abag38
(g61
g40
Ntp2940
Rp2941
(lp2942
g121
(g124
S'1\xd7\x98\x04\x18\x0e\xac\xbf'
p2943
tp2944
Rp2945
ag121
(g124
S'\x97\x94\xd0\x9b\xba\xdc\xe0\xbf'
p2946
tp2947
Rp2948
ag121
(g124
S"'\xe4\x90\xf7\xd8\x1ec\xbf"
p2949
tp2950
Rp2951
ag121
(g124
S'\xf6\xeb\xb2\xf2\xdd#\xeb?'
p2952
tp2953
Rp2954
abababag38
(g39
g40
Ntp2955
Rp2956
(lp2957
g2445
ag38
(g53
g40
Ntp2958
Rp2959
(lp2960
g38
(g57
g40
Ntp2961
Rp2962
(lp2963
g121
(g124
S'BK3w\xb0?\xe2?'
p2964
tp2965
Rp2966
ag121
(g124
S'M\x03\xc1\xe3\xd0\x8a\xc7\xbf'
p2967
tp2968
Rp2969
ag121
(g124
S'\xf2\xf98\xebL\x02\xe3?'
p2970
tp2971
Rp2972
abag38
(g61
g40
Ntp2973
Rp2974
(lp2975
g121
(g124
S'\xe5\xc5C\xc7\xd7\xa8\xab\xbf'
p2976
tp2977
Rp2978
ag121
(g124
S'\xb4\x92\x9d>\x00\xb6\xdf\xbf'
p2979
tp2980
Rp2981
ag121
(g124
S'A\x16nW\xff\xc1\\?'
p2982
tp2983
Rp2984
ag121
(g124
S'~\xd8(t\xec\xbd\xeb?'
p2985
tp2986
Rp2987
abababag38
(g39
g40
Ntp2988
Rp2989
(lp2990
g2445
ag38
(g53
g40
Ntp2991
Rp2992
(lp2993
g38
(g57
g40
Ntp2994
Rp2995
(lp2996
g121
(g124
S'\x90\x01\r\xe1\x8d\x82\xe2?'
p2997
tp2998
Rp2999
ag121
(g124
S'\x18\x98N\xecU?\xc6\xbf'
p3000
tp3001
Rp3002
ag121
(g124
S'\xdb\xb6\x02?\xde\xda\xe2?'
p3003
tp3004
Rp3005
abag38
(g61
g40
Ntp3006
Rp3007
(lp3008
g121
(g124
S'\xe0\x19W\xce\x01\x00\xa9\xbf'
p3009
tp3010
Rp3011
ag121
(g124
S'H\xdd\xf7"\xcd\xb4\xdd\xbf'
p3012
tp3013
Rp3014
ag121
(g124
S'?\x8e\xa2\t\xa4\xb0{\xbf'
p3015
tp3016
Rp3017
ag121
(g124
S'X\xd8z3\xd4L\xec?'
p3018
tp3019
Rp3020
abababag38
(g39
g40
Ntp3021
Rp3022
(lp3023
g2445
ag38
(g53
g40
Ntp3024
Rp3025
(lp3026
g38
(g57
g40
Ntp3027
Rp3028
(lp3029
g121
(g124
S'\xf7\x87M9\xab\xc2\xe2?'
p3030
tp3031
Rp3032
ag121
(g124
S'N\x15w\xf3\xebF\xc8\xbf'
p3033
tp3034
Rp3035
ag121
(g124
S'LL\x85Y\xfd\xac\xe2?'
p3036
tp3037
Rp3038
abag38
(g61
g40
Ntp3039
Rp3040
(lp3041
g121
(g124
S'\xd6\xff5\xf8g\x9c\xa7\xbf'
p3042
tp3043
Rp3044
ag121
(g124
S'V\x82\x1c%\xc8\xbf\xdb\xbf'
p3045
tp3046
Rp3047
ag121
(g124
S'f\xb7\xe0l\xb0\xc5\x8c\xbf'
p3048
tp3049
Rp3050
ag121
(g124
S't\x03"\xa1\\\xcb\xec?'
p3051
tp3052
Rp3053
abababag38
(g39
g40
Ntp3054
Rp3055
(lp3056
g2445
ag38
(g53
g40
Ntp3057
Rp3058
(lp3059
g38
(g57
g40
Ntp3060
Rp3061
(lp3062
g121
(g124
S'Az\x1c\x04\x00\x00\xe3?'
p3063
tp3064
Rp3065
ag121
(g124
S'\xcc))\x0eJ\x7f\xc8\xbf'
p3066
tp3067
Rp3068
ag121
(g124
S'|\x08>0\xb1q\xe2?'
p3069
tp3070
Rp3071
abag38
(g61
g40
Ntp3072
Rp3073
(lp3074
g121
(g124
S'\xaaM\xf8\xbb\xd5\xa6\xa6\xbf'
p3075
tp3076
Rp3077
ag121
(g124
S'\xea\x95\xbc3A\x96\xd9\xbf'
p3078
tp3079
Rp3080
ag121
(g124
S'\x14A\x15\n\xe1\xe7\x92\xbf'
p3081
tp3082
Rp3083
ag121
(g124
S'\xf2\x89 \x80\x8bJ\xed?'
p3084
tp3085
Rp3086
abababag38
(g39
g40
Ntp3087
Rp3088
(lp3089
g2445
ag38
(g53
g40
Ntp3090
Rp3091
(lp3092
g38
(g57
g40
Ntp3093
Rp3094
(lp3095
g121
(g124
S'&\x18\xe3\x00\xb3;\xe3?'
p3096
tp3097
Rp3098
ag121
(g124
S'\xab\x1e\x01H\x16\xa6\xc8\xbf'
p3099
tp3100
Rp3101
ag121
(g124
S'\xfb\x13RN\x97;\xe2?'
p3102
tp3103
Rp3104
abag38
(g61
g40
Ntp3105
Rp3106
(lp3107
g121
(g124
S'\xb5\xb2\xd0\xe21J\xa7\xbf'
p3108
tp3109
Rp3110
ag121
(g124
S'\xb30\x12t\x15x\xd7\xbf'
p3111
tp3112
Rp3113
ag121
(g124
S'\x14.\xdb\xbf/\\\x96\xbf'
p3114
tp3115
Rp3116
ag121
(g124
S'o\x0e:\x93\x1b\xba\xed?'
p3117
tp3118
Rp3119
abababag38
(g39
g40
Ntp3120
Rp3121
(lp3122
g2445
ag38
(g53
g40
Ntp3123
Rp3124
(lp3125
g38
(g57
g40
Ntp3126
Rp3127
(lp3128
g121
(g124
S'\xe2\xc7\x99\xd4\x84p\xe3?'
p3129
tp3130
Rp3131
ag121
(g124
S'\xc6\x80\x85\x99\xa4\xbb\xc8\xbf'
p3132
tp3133
Rp3134
ag121
(g124
S'\xa4\x9b\xfd\x18\xaf\xfc\xe1?'
p3135
tp3136
Rp3137
abag38
(g61
g40
Ntp3138
Rp3139
(lp3140
g121
(g124
S'@\xe4_\xac\x08\x92\xa9\xbf'
p3141
tp3142
Rp3143
ag121
(g124
S'k"0\x93`>\xd5\xbf'
p3144
tp3145
Rp3146
ag121
(g124
S'\xa47e\xeb\xb4\xca\x97\xbf'
p3147
tp3148
Rp3149
ag121
(g124
S'\x9b<\xef\xbeZ"\xee?'
p3150
tp3151
Rp3152
abababag38
(g39
g40
Ntp3153
Rp3154
(lp3155
g2445
ag38
(g53
g40
Ntp3156
Rp3157
(lp3158
g38
(g57
g40
Ntp3159
Rp3160
(lp3161
g121
(g124
S'\xba\x0fR5\x04\xa1\xe3?'
p3162
tp3163
Rp3164
ag121
(g124
S'\xd6\x07\xb77\xec\xc3\xc8\xbf'
p3165
tp3166
Rp3167
ag121
(g124
S'<\x1a5\xc1\xad\xba\xe1?'
p3168
tp3169
Rp3170
abag38
(g61
g40
Ntp3171
Rp3172
(lp3173
g121
(g124
S's\x0e\x14\x8a#_\xac\xbf'
p3174
tp3175
Rp3176
ag121
(g124
S'\xb8\\\xb11r\t\xd3\xbf'
p3177
tp3178
Rp3179
ag121
(g124
S'y\xca\xa5\xe7\x8eK\x98\xbf'
p3180
tp3181
Rp3182
ag121
(g124
S'\x8ax\xee\xc3\x99}\xee?'
p3183
tp3184
Rp3185
abababag38
(g39
g40
Ntp3186
Rp3187
(lp3188
g2445
ag38
(g53
g40
Ntp3189
Rp3190
(lp3191
g38
(g57
g40
Ntp3192
Rp3193
(lp3194
g121
(g124
S'~\xa4[=\x91\xce\xe3?'
p3195
tp3196
Rp3197
ag121
(g124
S'A\xb3d\xfe\x08\xc9\xc8\xbf'
p3198
tp3199
Rp3200
ag121
(g124
S'\xedH{VCu\xe1?'
p3201
tp3202
Rp3203
abag38
(g61
g40
Ntp3204
Rp3205
(lp3206
g121
(g124
S'\x05T\n\xea\xef\xdc\xaf\xbf'
p3207
tp3208
Rp3209
ag121
(g124
S'\xd3\xfef\x16D\xcb\xd0\xbf'
p3210
tp3211
Rp3212
ag121
(g124
S'\xc1\xc04\x904)\x98\xbf'
p3213
tp3214
Rp3215
ag121
(g124
S'\xf9[kI\x1b\xce\xee?'
p3216
tp3217
Rp3218
abababag38
(g39
g40
Ntp3219
Rp3220
(lp3221
g2445
ag38
(g53
g40
Ntp3222
Rp3223
(lp3224
g38
(g57
g40
Ntp3225
Rp3226
(lp3227
g121
(g124
S'\xb6\x8eR.\xb1\xf6\xe3?'
p3228
tp3229
Rp3230
ag121
(g124
S'\xb6~\x89oL\xb6\xc8\xbf'
p3231
tp3232
Rp3233
ag121
(g124
S'aa@\x06]*\xe1?'
p3234
tp3235
Rp3236
abag38
(g61
g40
Ntp3237
Rp3238
(lp3239
g121
(g124
S'\xcd\x800\xc5\x10o\xb2\xbf'
p3240
tp3241
Rp3242
ag121
(g124
S'\n\xa7q\xe3\x19\xfc\xcc\xbf'
p3243
tp3244
Rp3245
ag121
(g124
S'x\xa7>\x0f\\\x0f\x96\xbf'
p3246
tp3247
Rp3248
ag121
(g124
S'?\x06\xb6fj\x13\xef?'
p3249
tp3250
Rp3251
abababag38
(g39
g40
Ntp3252
Rp3253
(lp3254
g2445
ag38
(g53
g40
Ntp3255
Rp3256
(lp3257
g38
(g57
g40
Ntp3258
Rp3259
(lp3260
g121
(g124
S'\x83R\x8aFB\x1b\xe4?'
p3261
tp3262
Rp3263
ag121
(g124
S'\x89\x8f8!\x88|\xc8\xbf'
p3264
tp3265
Rp3266
ag121
(g124
S'W\x81\xc2\xbc\xa7\xe0\xe0?'
p3267
tp3268
Rp3269
abag38
(g61
g40
Ntp3270
Rp3271
(lp3272
g121
(g124
S'\x87\xd5\xcdQ\xfas\xb5\xbf'
p3273
tp3274
Rp3275
ag121
(g124
S'\x83\xc8^\x8eNv\xc8\xbf'
p3276
tp3277
Rp3278
ag121
(g124
S'\xe7\xd8-\xa7&\xe2\x90\xbf'
p3279
tp3280
Rp3281
ag121
(g124
S'5\xdc\x189\x83J\xef?'
p3282
tp3283
Rp3284
abababag38
(g39
g40
Ntp3285
Rp3286
(lp3287
g2445
ag38
(g53
g40
Ntp3288
Rp3289
(lp3290
g38
(g57
g40
Ntp3291
Rp3292
(lp3293
g121
(g124
S'v\x0e\x80\x9ez3\xe4?'
p3294
tp3295
Rp3296
ag121
(g124
S'\x99\x13\xf8\x8d\xab|\xc8\xbf'
p3297
tp3298
Rp3299
ag121
(g124
S']R\x83\xac\xf4\x90\xe0?'
p3300
tp3301
Rp3302
abag38
(g61
g40
Ntp3303
Rp3304
(lp3305
g121
(g124
S'\x9d\xa1\xc1\xbf(\x81\xb8\xbf'
p3306
tp3307
Rp3308
ag121
(g124
S'\x04\x13\x90\x8e\x9e\xec\xc3\xbf'
p3309
tp3310
Rp3311
ag121
(g124
S'\xe5%\xa2\xc2z1\x8b\xbf'
p3312
tp3313
Rp3314
ag121
(g124
S'\xd5\xd3+\x90Tu\xef?'
p3315
tp3316
Rp3317
abababag38
(g39
g40
Ntp3318
Rp3319
(lp3320
g2445
ag38
(g53
g40
Ntp3321
Rp3322
(lp3323
g38
(g57
g40
Ntp3324
Rp3325
(lp3326
g121
(g124
S'\x04\xbe\rZ+H\xe4?'
p3327
tp3328
Rp3329
ag121
(g124
S'\x80\xe0\xd8\xaf\x05(\xc9\xbf'
p3330
tp3331
Rp3332
ag121
(g124
S'C^}\xea\x83N\xe0?'
p3333
tp3334
Rp3335
abag38
(g61
g40
Ntp3336
Rp3337
(lp3338
g121
(g124
S'.<<\xea\xbb\xa2\xb9\xbf'
p3339
tp3340
Rp3341
ag121
(g124
S'Ddl\x8fPy\xbf\xbf'
p3342
tp3343
Rp3344
ag121
(g124
S'\xcc\xdfV\x0f\xc3\xd8\x9d\xbf'
p3345
tp3346
Rp3347
ag121
(g124
S'u\x84\x12\x06\xd5\x94\xef?'
p3348
tp3349
Rp3350
abababas.