(dp0
S'RLAB'
p1
(lp2
ccopy_reg
_reconstructor
p3
(cgeometry_msgs.msg._PoseStamped
PoseStamped
p4
c__builtin__
object
p5
Ntp6
Rp7
(lp8
g3
(cstd_msgs.msg._Header
Header
p9
g5
Ntp10
Rp11
(lp12
I0
ag3
(cgenpy.rostime
Time
p13
g5
Ntp14
Rp15
(lp16
I4859
aI793000000
abaS'/base_link'
p17
abag3
(cgeometry_msgs.msg._Pose
Pose
p18
g5
Ntp19
Rp20
(lp21
g3
(cgeometry_msgs.msg._Point
Point
p22
g5
Ntp23
Rp24
(lp25
F0.3608732962143377
aF-0.05555982006840394
aF0.5720916165585321
abag3
(cgeometry_msgs.msg._Quaternion
Quaternion
p26
g5
Ntp27
Rp28
(lp29
F-0.05707103541645489
aF-0.026534082402433275
aF-0.22724457120075695
aF0.9718018029656761
abababag3
(g4
g5
Ntp30
Rp31
(lp32
g3
(g9
g5
Ntp33
Rp34
(lp35
I0
ag3
(g13
g5
Ntp36
Rp37
(lp38
I4860
aI254000000
abaS'/base_link'
p39
abag3
(g18
g5
Ntp40
Rp41
(lp42
g3
(g22
g5
Ntp43
Rp44
(lp45
F0.3572756353919946
aF-0.058441748428288164
aF0.5872096742383004
abag3
(g26
g5
Ntp46
Rp47
(lp48
F-0.034277185198742496
aF-0.06095755217257355
aF-0.23332387059744303
aF0.9698810353942419
abababag3
(g4
g5
Ntp49
Rp50
(lp51
g3
(g9
g5
Ntp52
Rp53
(lp54
I0
ag3
(g13
g5
Ntp55
Rp56
(lp57
I4860
aI692000000
abaS'/base_link'
p58
abag3
(g18
g5
Ntp59
Rp60
(lp61
g3
(g22
g5
Ntp62
Rp63
(lp64
F0.3555547363317792
aF-0.05889312817950859
aF0.5944582353447072
abag3
(g26
g5
Ntp65
Rp66
(lp67
F0.0023682154086625985
aF-0.09409209221762617
aF-0.23400621554762677
aF0.967668414707727
abababag3
(g4
g5
Ntp68
Rp69
(lp70
g3
(g9
g5
Ntp71
Rp72
(lp73
I0
ag3
(g13
g5
Ntp74
Rp75
(lp76
I4861
aI131000000
abaS'/base_link'
p77
abag3
(g18
g5
Ntp78
Rp79
(lp80
g3
(g22
g5
Ntp81
Rp82
(lp83
F0.35020679839868435
aF-0.0613342942376926
aF0.6130846297764138
abag3
(g26
g5
Ntp84
Rp85
(lp86
F0.017982591512010104
aF-0.12901591678336502
aF-0.2376682887828893
aF0.9625722331991886
abababag3
(g4
g5
Ntp87
Rp88
(lp89
g3
(g9
g5
Ntp90
Rp91
(lp92
I0
ag3
(g13
g5
Ntp93
Rp94
(lp95
I4861
aI592000000
abaS'/base_link'
p96
abag3
(g18
g5
Ntp97
Rp98
(lp99
g3
(g22
g5
Ntp100
Rp101
(lp102
F0.3398666265169269
aF-0.06381617866408548
aF0.6462105595873668
abag3
(g26
g5
Ntp103
Rp104
(lp105
F0.0026936907956960727
aF-0.16429586268459478
aF-0.24215151366116935
aF0.9562229122784218
abababag3
(g4
g5
Ntp106
Rp107
(lp108
g3
(g9
g5
Ntp109
Rp110
(lp111
I0
ag3
(g13
g5
Ntp112
Rp113
(lp114
I4862
aI59000000
abaS'/base_link'
p115
abag3
(g18
g5
Ntp116
Rp117
(lp118
g3
(g22
g5
Ntp119
Rp120
(lp121
F0.33325094004244254
aF-0.06475279342270159
aF0.6627876137086037
abag3
(g26
g5
Ntp122
Rp123
(lp124
F0.02112409855896871
aF-0.19897753559852108
aF-0.2428795882674313
aF0.9491950370657514
abababag3
(g4
g5
Ntp125
Rp126
(lp127
g3
(g9
g5
Ntp128
Rp129
(lp130
I0
ag3
(g13
g5
Ntp131
Rp132
(lp133
I4862
aI452000000
abaS'/base_link'
p134
abag3
(g18
g5
Ntp135
Rp136
(lp137
g3
(g22
g5
Ntp138
Rp139
(lp140
F0.32546036442239545
aF-0.06472667521977005
aF0.681759907968572
abag3
(g26
g5
Ntp141
Rp142
(lp143
F0.03359684895052275
aF-0.2338424877580389
aF-0.24095126283209287
aF0.9413455431452081
abababag3
(g4
g5
Ntp144
Rp145
(lp146
g3
(g9
g5
Ntp147
Rp148
(lp149
I0
ag3
(g13
g5
Ntp150
Rp151
(lp152
I4862
aI826000000
abaS'/base_link'
p153
abag3
(g18
g5
Ntp154
Rp155
(lp156
g3
(g22
g5
Ntp157
Rp158
(lp159
F0.31569640649751834
aF-0.06452440060092099
aF0.7030666970889875
abag3
(g26
g5
Ntp160
Rp161
(lp162
F0.03908739832937194
aF-0.26773463187599394
aF-0.23970164912628242
aF0.9323805347561733
abababag3
(g4
g5
Ntp163
Rp164
(lp165
g3
(g9
g5
Ntp166
Rp167
(lp168
I0
ag3
(g13
g5
Ntp169
Rp170
(lp171
I4863
aI281000000
abaS'/base_link'
p172
abag3
(g18
g5
Ntp173
Rp174
(lp175
g3
(g22
g5
Ntp176
Rp177
(lp178
F0.30426587132783744
aF-0.06270961112378977
aF0.726403592961532
abag3
(g26
g5
Ntp179
Rp180
(lp181
F0.041798288855593835
aF-0.30273623344851364
aF-0.23669309759026613
aF0.9222689702897285
abababag3
(g4
g5
Ntp182
Rp183
(lp184
g3
(g9
g5
Ntp185
Rp186
(lp187
I0
ag3
(g13
g5
Ntp188
Rp189
(lp190
I4863
aI722000000
abaS'/base_link'
p191
abag3
(g18
g5
Ntp192
Rp193
(lp194
g3
(g22
g5
Ntp195
Rp196
(lp197
F0.2912608364816133
aF-0.05888119957078518
aF0.7510186727459243
abag3
(g26
g5
Ntp198
Rp199
(lp200
F0.038593159413602286
aF-0.33667115514793033
aF-0.23252501971547204
aF0.9116442379262614
abababag3
(g4
g5
Ntp201
Rp202
(lp203
g3
(g9
g5
Ntp204
Rp205
(lp206
I0
ag3
(g13
g5
Ntp207
Rp208
(lp209
I4864
aI145000000
abaS'/base_link'
p210
abag3
(g18
g5
Ntp211
Rp212
(lp213
g3
(g22
g5
Ntp214
Rp215
(lp216
F0.2785915493553028
aF-0.05509274006890953
aF0.7726347122028343
abag3
(g26
g5
Ntp217
Rp218
(lp219
F0.04108898964717477
aF-0.3703419403795609
aF-0.22668690449231768
aF0.8998730963071221
abababag3
(g4
g5
Ntp220
Rp221
(lp222
g3
(g9
g5
Ntp223
Rp224
(lp225
I0
ag3
(g13
g5
Ntp226
Rp227
(lp228
I4864
aI545000000
abaS'/base_link'
p229
abag3
(g18
g5
Ntp230
Rp231
(lp232
g3
(g22
g5
Ntp233
Rp234
(lp235
F0.29092097202719114
aF-0.05861732508059317
aF0.7515890079373211
abag3
(g26
g5
Ntp236
Rp237
(lp238
F0.038372236925845786
aF-0.3369661733083928
aF-0.23272527700788254
aF0.9114934530323349
abababag3
(g4
g5
Ntp239
Rp240
(lp241
g3
(g9
g5
Ntp242
Rp243
(lp244
I0
ag3
(g13
g5
Ntp245
Rp246
(lp247
I4864
aI983000000
abaS'/base_link'
p248
abag3
(g18
g5
Ntp249
Rp250
(lp251
g3
(g22
g5
Ntp252
Rp253
(lp254
F0.30180961418850527
aF-0.06142134150831252
aF0.7321590265349168
abag3
(g26
g5
Ntp255
Rp256
(lp257
F0.032369702227196206
aF-0.30463681632946893
aF-0.23819323904819195
aF0.9216358247084901
abababag3
(g4
g5
Ntp258
Rp259
(lp260
g3
(g9
g5
Ntp261
Rp262
(lp263
I0
ag3
(g13
g5
Ntp264
Rp265
(lp266
I4865
aI401000000
abaS'/base_link'
p267
abag3
(g18
g5
Ntp268
Rp269
(lp270
g3
(g22
g5
Ntp271
Rp272
(lp273
F0.31300463641481446
aF-0.0635758018810176
aF0.7099610881499272
abag3
(g26
g5
Ntp274
Rp275
(lp276
F0.027394057086734005
aF-0.2695863590441911
aF-0.24125804508158408
aF0.9318622839975002
abababag3
(g4
g5
Ntp277
Rp278
(lp279
g3
(g9
g5
Ntp280
Rp281
(lp282
I0
ag3
(g13
g5
Ntp283
Rp284
(lp285
I4865
aI836000000
abaS'/base_link'
p286
abag3
(g18
g5
Ntp287
Rp288
(lp289
g3
(g22
g5
Ntp290
Rp291
(lp292
F0.3240475446975692
aF-0.06463742461256018
aF0.6861416821693224
abag3
(g26
g5
Ntp293
Rp294
(lp295
F0.026342213565702988
aF-0.23481664261881374
aF-0.24246203099744632
aF0.9409460110220355
abababag3
(g4
g5
Ntp296
Rp297
(lp298
g3
(g9
g5
Ntp299
Rp300
(lp301
I0
ag3
(g13
g5
Ntp302
Rp303
(lp304
I4866
aI265000000
abaS'/base_link'
p305
abag3
(g18
g5
Ntp306
Rp307
(lp308
g3
(g22
g5
Ntp309
Rp310
(lp311
F0.333471299087638
aF-0.06503115901427875
aF0.6614590563111821
abag3
(g26
g5
Ntp312
Rp313
(lp314
F0.024637941924804924
aF-0.19932122549970346
aF-0.24308651090153705
aF0.9489852312342502
abababag3
(g4
g5
Ntp315
Rp316
(lp317
g3
(g9
g5
Ntp318
Rp319
(lp320
I0
ag3
(g13
g5
Ntp321
Rp322
(lp323
I4866
aI711000000
abaS'/base_link'
p324
abag3
(g18
g5
Ntp325
Rp326
(lp327
g3
(g22
g5
Ntp328
Rp329
(lp330
F0.34281075050367094
aF-0.06382905131344213
aF0.6362396451683754
abag3
(g26
g5
Ntp331
Rp332
(lp333
F0.021580987849292545
aF-0.16278745735480812
aF-0.24131673212897511
aF0.9564521626751636
abababag3
(g4
g5
Ntp334
Rp335
(lp336
g3
(g9
g5
Ntp337
Rp338
(lp339
I0
ag3
(g13
g5
Ntp340
Rp341
(lp342
I4867
aI177000000
abaS'/base_link'
p343
abag3
(g18
g5
Ntp344
Rp345
(lp346
g3
(g22
g5
Ntp347
Rp348
(lp349
F0.35117084547140826
aF-0.061394410589444365
aF0.6102294521161361
abag3
(g26
g5
Ntp350
Rp351
(lp352
F0.019804627035360525
aF-0.126411604143375
aF-0.2369788356882055
aF0.963051875301508
abababag3
(g4
g5
Ntp353
Rp354
(lp355
g3
(g9
g5
Ntp356
Rp357
(lp358
I0
ag3
(g13
g5
Ntp359
Rp360
(lp361
I4867
aI585000000
abaS'/base_link'
p362
abag3
(g18
g5
Ntp363
Rp364
(lp365
g3
(g22
g5
Ntp366
Rp367
(lp368
F0.3578397762991971
aF-0.05766887710948358
aF0.5855796636693484
abag3
(g26
g5
Ntp369
Rp370
(lp371
F0.017503284715984894
aF-0.09163912949303828
aF-0.23212974769862987
aF0.9682002299128418
abababag3
(g4
g5
Ntp372
Rp373
(lp374
g3
(g9
g5
Ntp375
Rp376
(lp377
I0
ag3
(g13
g5
Ntp378
Rp379
(lp380
I4868
aI54000000
abaS'/base_link'
p381
abag3
(g18
g5
Ntp382
Rp383
(lp384
g3
(g22
g5
Ntp385
Rp386
(lp387
F0.3636426394605364
aF-0.053090274077262474
aF0.5607040473967868
abag3
(g26
g5
Ntp388
Rp389
(lp390
F0.01384128343309311
aF-0.056126703581115635
aF-0.2257787006911283
aF0.9724619223045539
abababag3
(g4
g5
Ntp391
Rp392
(lp393
g3
(g9
g5
Ntp394
Rp395
(lp396
I0
ag3
(g13
g5
Ntp397
Rp398
(lp399
I4868
aI563000000
abaS'/base_link'
p400
abag3
(g18
g5
Ntp401
Rp402
(lp403
g3
(g22
g5
Ntp404
Rp405
(lp406
F0.34844093630094475
aF-0.0622692441813464
aF0.6201139326905816
abag3
(g26
g5
Ntp407
Rp408
(lp409
F-0.04994658544557199
aF-0.09481205886763067
aF-0.2412812106373085
aF0.964520289827541
abababag3
(g4
g5
Ntp410
Rp411
(lp412
g3
(g9
g5
Ntp413
Rp414
(lp415
I0
ag3
(g13
g5
Ntp416
Rp417
(lp418
I4868
aI989000000
abaS'/base_link'
p419
abag3
(g18
g5
Ntp420
Rp421
(lp422
g3
(g22
g5
Ntp423
Rp424
(lp425
F0.3349111500456592
aF-0.06309110985500489
aF0.6628429525489673
abag3
(g26
g5
Ntp426
Rp427
(lp428
F-0.08114776955801252
aF-0.1316437627902445
aF-0.2508298966850491
aF0.9555989337285559
abababag3
(g4
g5
Ntp429
Rp430
(lp431
g3
(g9
g5
Ntp432
Rp433
(lp434
I0
ag3
(g13
g5
Ntp435
Rp436
(lp437
I4869
aI533000000
abaS'/base_link'
p438
abag3
(g18
g5
Ntp439
Rp440
(lp441
g3
(g22
g5
Ntp442
Rp443
(lp444
F0.31768674248228557
aF-0.06224972178590879
aF0.7050214316736367
abag3
(g26
g5
Ntp445
Rp446
(lp447
F-0.11395143750025886
aF-0.16775012847748655
aF-0.26333793318435894
aF0.9431479720773414
abababag3
(g4
g5
Ntp448
Rp449
(lp450
g3
(g9
g5
Ntp451
Rp452
(lp453
I0
ag3
(g13
g5
Ntp454
Rp455
(lp456
I4870
aI96000000
abaS'/base_link'
p457
abag3
(g18
g5
Ntp458
Rp459
(lp460
g3
(g22
g5
Ntp461
Rp462
(lp463
F0.2990858597669046
aF-0.056452666830049195
aF0.7454572914790069
abag3
(g26
g5
Ntp464
Rp465
(lp466
F-0.14557128317442486
aF-0.203446521894846
aF-0.2721034766370266
aF0.9291814743342037
abababag3
(g4
g5
Ntp467
Rp468
(lp469
g3
(g9
g5
Ntp470
Rp471
(lp472
I0
ag3
(g13
g5
Ntp473
Rp474
(lp475
I4870
aI539000000
abaS'/base_link'
p476
abag3
(g18
g5
Ntp477
Rp478
(lp479
g3
(g22
g5
Ntp480
Rp481
(lp482
F0.29468706834641145
aF-0.05454614067633718
aF0.7540695081162004
abag3
(g26
g5
Ntp483
Rp484
(lp485
F-0.1123950741380373
aF-0.2393746067367554
aF-0.2652752214194235
aF0.9271980381018958
abababag3
(g4
g5
Ntp486
Rp487
(lp488
g3
(g9
g5
Ntp489
Rp490
(lp491
I0
ag3
(g13
g5
Ntp492
Rp493
(lp494
I4870
aI990000000
abaS'/base_link'
p495
abag3
(g18
g5
Ntp496
Rp497
(lp498
g3
(g22
g5
Ntp499
Rp500
(lp501
F0.2908074744348321
aF-0.054213689085304745
aF0.759849666417637
abag3
(g26
g5
Ntp502
Rp503
(lp504
F-0.07427171098107303
aF-0.27435572197319513
aF-0.25667411113159955
aF0.9237591955933723
abababag3
(g4
g5
Ntp505
Rp506
(lp507
g3
(g9
g5
Ntp508
Rp509
(lp510
I0
ag3
(g13
g5
Ntp511
Rp512
(lp513
I4871
aI440000000
abaS'/base_link'
p514
abag3
(g18
g5
Ntp515
Rp516
(lp517
g3
(g22
g5
Ntp518
Rp519
(lp520
F0.32482222693159063
aF-0.06507185946878587
aF0.6837700376285714
abag3
(g26
g5
Ntp521
Rp522
(lp523
F0.03092886383616552
aF-0.23476602468886199
aF-0.2414629467196938
aF0.9410759610121995
abababag3
(g4
g5
Ntp524
Rp525
(lp526
g3
(g9
g5
Ntp527
Rp528
(lp529
I0
ag3
(g13
g5
Ntp530
Rp531
(lp532
I4871
aI846000000
abaS'/base_link'
p533
abag3
(g18
g5
Ntp534
Rp535
(lp536
g3
(g22
g5
Ntp537
Rp538
(lp539
F0.3397554530563415
aF-0.06509703037437746
aF0.6424732288679704
abag3
(g26
g5
Ntp540
Rp541
(lp542
F0.0626092699843352
aF-0.19794568610393173
aF-0.23865343603850125
aF0.9486527932451837
abababag3
(g4
g5
Ntp543
Rp544
(lp545
g3
(g9
g5
Ntp546
Rp547
(lp548
I0
ag3
(g13
g5
Ntp549
Rp550
(lp551
I4872
aI279000000
abaS'/base_link'
p552
abag3
(g18
g5
Ntp553
Rp554
(lp555
g3
(g22
g5
Ntp556
Rp557
(lp558
F0.3530012373798574
aF-0.06073131214794403
aF0.5988360675949929
abag3
(g26
g5
Ntp559
Rp560
(lp561
F0.09668358271334838
aF-0.15972894302641977
aF-0.2336725814625015
aF0.9542201393106438
abababasS'LLAD'
p562
(lp563
g3
(g4
g5
Ntp564
Rp565
(lp566
g3
(g9
g5
Ntp567
Rp568
(lp569
I0
ag3
(g13
g5
Ntp570
Rp571
(lp572
I147
aI289000000
abaS'/base_link'
p573
abag3
(g18
g5
Ntp574
Rp575
(lp576
g3
(g22
g5
Ntp577
Rp578
(lp579
F0.3242550067062675
aF-0.0752096288977306
aF0.6723931973391564
abag3
(g26
g5
Ntp580
Rp581
(lp582
F-0.10158967737293953
aF-0.4880238708183467
aF-0.04478163608662168
aF0.8657406332338485
abababag3
(g4
g5
Ntp583
Rp584
(lp585
g3
(g9
g5
Ntp586
Rp587
(lp588
I0
ag3
(g13
g5
Ntp589
Rp590
(lp591
I147
aI605000000
abaS'/base_link'
p592
abag3
(g18
g5
Ntp593
Rp594
(lp595
g3
(g22
g5
Ntp596
Rp597
(lp598
F0.3259824779937879
aF-0.0894982020194488
aF0.670857158852045
abag3
(g26
g5
Ntp599
Rp600
(lp601
F-0.07891696419626473
aF-0.4738857603024828
aF-0.08783723172571958
aF0.8726333821642085
abababag3
(g4
g5
Ntp602
Rp603
(lp604
g3
(g9
g5
Ntp605
Rp606
(lp607
I0
ag3
(g13
g5
Ntp608
Rp609
(lp610
I147
aI870000000
abaS'/base_link'
p611
abag3
(g18
g5
Ntp612
Rp613
(lp614
g3
(g22
g5
Ntp615
Rp616
(lp617
F0.32724558289768546
aF-0.10374701415805977
aF0.6679565970902805
abag3
(g26
g5
Ntp618
Rp619
(lp620
F-0.05561940411462338
aF-0.4588458174380306
aF-0.13098010699220422
aF0.8770468683473366
abababag3
(g4
g5
Ntp621
Rp622
(lp623
g3
(g9
g5
Ntp624
Rp625
(lp626
I0
ag3
(g13
g5
Ntp627
Rp628
(lp629
I148
aI144000000
abaS'/base_link'
p630
abag3
(g18
g5
Ntp631
Rp632
(lp633
g3
(g22
g5
Ntp634
Rp635
(lp636
F0.3242859838003253
aF-0.12254974842079891
aF0.6648555334591117
abag3
(g26
g5
Ntp637
Rp638
(lp639
F-0.04442615772337283
aF-0.4464711538193561
aF-0.17422670932082943
aF0.8765471345434802
abababag3
(g4
g5
Ntp640
Rp641
(lp642
g3
(g9
g5
Ntp643
Rp644
(lp645
I0
ag3
(g13
g5
Ntp646
Rp647
(lp648
I148
aI472000000
abaS'/base_link'
p649
abag3
(g18
g5
Ntp650
Rp651
(lp652
g3
(g22
g5
Ntp653
Rp654
(lp655
F0.31687964779920547
aF-0.14455293238003186
aF0.662480016033392
abag3
(g26
g5
Ntp656
Rp657
(lp658
F-0.04414811091055323
aF-0.43714481383275167
aF-0.21847148368074584
aF0.8713355076321014
abababag3
(g4
g5
Ntp659
Rp660
(lp661
g3
(g9
g5
Ntp662
Rp663
(lp664
I0
ag3
(g13
g5
Ntp665
Rp666
(lp667
I148
aI719000000
abaS'/base_link'
p668
abag3
(g18
g5
Ntp669
Rp670
(lp671
g3
(g22
g5
Ntp672
Rp673
(lp674
F0.3062124812698351
aF-0.1671990469250358
aF0.6611253946192307
abag3
(g26
g5
Ntp675
Rp676
(lp677
F-0.05132945377854931
aF-0.4299968492782758
aF-0.2598939895578584
aF0.8630892833173468
abababag3
(g4
g5
Ntp678
Rp679
(lp680
g3
(g9
g5
Ntp681
Rp682
(lp683
I0
ag3
(g13
g5
Ntp684
Rp685
(lp686
I148
aI979000000
abaS'/base_link'
p687
abag3
(g18
g5
Ntp688
Rp689
(lp690
g3
(g22
g5
Ntp691
Rp692
(lp693
F0.290670568717006
aF-0.19151714884686266
aF0.6600071732438215
abag3
(g26
g5
Ntp694
Rp695
(lp696
F-0.06542949487200521
aF-0.42546230244865046
aF-0.30266551399071334
aF0.8503495734323765
abababag3
(g4
g5
Ntp697
Rp698
(lp699
g3
(g9
g5
Ntp700
Rp701
(lp702
I0
ag3
(g13
g5
Ntp703
Rp704
(lp705
I149
aI295000000
abaS'/base_link'
p706
abag3
(g18
g5
Ntp707
Rp708
(lp709
g3
(g22
g5
Ntp710
Rp711
(lp712
F0.26392470833726095
aF-0.19134082239051659
aF0.7048779396486139
abag3
(g26
g5
Ntp713
Rp714
(lp715
F-0.15239829004026254
aF-0.4395469921840055
aF-0.30446511442960006
aF0.8311884244563131
abababag3
(g4
g5
Ntp716
Rp717
(lp718
g3
(g9
g5
Ntp719
Rp720
(lp721
I0
ag3
(g13
g5
Ntp722
Rp723
(lp724
I149
aI548000000
abaS'/base_link'
p725
abag3
(g18
g5
Ntp726
Rp727
(lp728
g3
(g22
g5
Ntp729
Rp730
(lp731
F0.2547888360876731
aF-0.1770367921591456
aF0.736322195188193
abag3
(g26
g5
Ntp732
Rp733
(lp734
F-0.19874516165068268
aF-0.4463784561698715
aF-0.2927725994180726
aF0.821906831470472
abababag3
(g4
g5
Ntp735
Rp736
(lp737
g3
(g9
g5
Ntp738
Rp739
(lp740
I0
ag3
(g13
g5
Ntp741
Rp742
(lp743
I149
aI867000000
abaS'/base_link'
p744
abag3
(g18
g5
Ntp745
Rp746
(lp747
g3
(g22
g5
Ntp748
Rp749
(lp750
F0.24449448059150497
aF-0.15920553893432451
aF0.7695520647393732
abag3
(g26
g5
Ntp751
Rp752
(lp753
F-0.24821069926004233
aF-0.4514309159408269
aF-0.28456396726849886
aF0.808470732579776
abababag3
(g4
g5
Ntp754
Rp755
(lp756
g3
(g9
g5
Ntp757
Rp758
(lp759
I0
ag3
(g13
g5
Ntp760
Rp761
(lp762
I150
aI153000000
abaS'/base_link'
p763
abag3
(g18
g5
Ntp764
Rp765
(lp766
g3
(g22
g5
Ntp767
Rp768
(lp769
F0.25614976551351
aF-0.1526950419165987
aF0.7797394156631052
abag3
(g26
g5
Ntp770
Rp771
(lp772
F-0.30123572880900856
aF-0.3735519336288226
aF-0.28395559861719205
aF0.8301115627342058
abababag3
(g4
g5
Ntp773
Rp774
(lp775
g3
(g9
g5
Ntp776
Rp777
(lp778
I0
ag3
(g13
g5
Ntp779
Rp780
(lp781
I150
aI466000000
abaS'/base_link'
p782
abag3
(g18
g5
Ntp783
Rp784
(lp785
g3
(g22
g5
Ntp786
Rp787
(lp788
F0.2681074465428905
aF-0.15475460642152933
aF0.7761943749234691
abag3
(g26
g5
Ntp789
Rp790
(lp791
F-0.3086679599280034
aF-0.3432513052833463
aF-0.27791177234897485
aF0.8424177578404998
abababag3
(g4
g5
Ntp792
Rp793
(lp794
g3
(g9
g5
Ntp795
Rp796
(lp797
I0
ag3
(g13
g5
Ntp798
Rp799
(lp800
I150
aI800000000
abaS'/base_link'
p801
abag3
(g18
g5
Ntp802
Rp803
(lp804
g3
(g22
g5
Ntp805
Rp806
(lp807
F0.28282251522823687
aF-0.15395366985684655
aF0.7754153927847609
abag3
(g26
g5
Ntp808
Rp809
(lp810
F-0.31322560148606515
aF-0.3258786822212188
aF-0.2640425917907162
aF0.8520412647095771
abababag3
(g4
g5
Ntp811
Rp812
(lp813
g3
(g9
g5
Ntp814
Rp815
(lp816
I0
ag3
(g13
g5
Ntp817
Rp818
(lp819
I151
aI172000000
abaS'/base_link'
p820
abag3
(g18
g5
Ntp821
Rp822
(lp823
g3
(g22
g5
Ntp824
Rp825
(lp826
F0.2985309216447236
aF-0.1510041748187076
aF0.7770080541787233
abag3
(g26
g5
Ntp827
Rp828
(lp829
F-0.3174875195151416
aF-0.3154488975565585
aF-0.24656970296426003
aF0.8595912107290249
abababag3
(g4
g5
Ntp830
Rp831
(lp832
g3
(g9
g5
Ntp833
Rp834
(lp835
I0
ag3
(g13
g5
Ntp836
Rp837
(lp838
I151
aI526000000
abaS'/base_link'
p839
abag3
(g18
g5
Ntp840
Rp841
(lp842
g3
(g22
g5
Ntp843
Rp844
(lp845
F0.31678114702114657
aF-0.1446546802425548
aF0.7812094618801452
abag3
(g26
g5
Ntp846
Rp847
(lp848
F-0.3216115022024056
aF-0.3135313977789396
aF-0.22211318721705664
aF0.8654073239360625
abababag3
(g4
g5
Ntp849
Rp850
(lp851
g3
(g9
g5
Ntp852
Rp853
(lp854
I0
ag3
(g13
g5
Ntp855
Rp856
(lp857
I151
aI857000000
abaS'/base_link'
p858
abag3
(g18
g5
Ntp859
Rp860
(lp861
g3
(g22
g5
Ntp862
Rp863
(lp864
F0.3342038836337245
aF-0.13672641687184886
aF0.7867618290433642
abag3
(g26
g5
Ntp865
Rp866
(lp867
F-0.3254099847380313
aF-0.3166947675149228
aF-0.19715611958442533
aF0.8688741166428396
abababag3
(g4
g5
Ntp868
Rp869
(lp870
g3
(g9
g5
Ntp871
Rp872
(lp873
I0
ag3
(g13
g5
Ntp874
Rp875
(lp876
I152
aI234000000
abaS'/base_link'
p877
abag3
(g18
g5
Ntp878
Rp879
(lp880
g3
(g22
g5
Ntp881
Rp882
(lp883
F0.3516613302107991
aF-0.1266055433925425
aF0.7939160152856458
abag3
(g26
g5
Ntp884
Rp885
(lp886
F-0.3293004508267149
aF-0.32330950468433184
aF-0.1697199628175277
aF0.8707624885623584
abababag3
(g4
g5
Ntp887
Rp888
(lp889
g3
(g9
g5
Ntp890
Rp891
(lp892
I0
ag3
(g13
g5
Ntp893
Rp894
(lp895
I152
aI677000000
abaS'/base_link'
p896
abag3
(g18
g5
Ntp897
Rp898
(lp899
g3
(g22
g5
Ntp900
Rp901
(lp902
F0.3679257760848931
aF-0.11592511619842628
aF0.8001277403185021
abag3
(g26
g5
Ntp903
Rp904
(lp905
F-0.33322104000809155
aF-0.3280289057903992
aF-0.14469343370858906
aF0.8720232713084539
abababag3
(g4
g5
Ntp906
Rp907
(lp908
g3
(g9
g5
Ntp909
Rp910
(lp911
I0
ag3
(g13
g5
Ntp912
Rp913
(lp914
I153
aI3000000
abaS'/base_link'
p915
abag3
(g18
g5
Ntp916
Rp917
(lp918
g3
(g22
g5
Ntp919
Rp920
(lp921
F0.381480859520412
aF-0.10819957483939185
aF0.8018023429048444
abag3
(g26
g5
Ntp922
Rp923
(lp924
F-0.341837627663466
aF-0.3182371242267931
aF-0.12645875845887924
aF0.8751459029706492
abababasS'LLAB'
p925
(lp926
g3
(g4
g5
Ntp927
Rp928
(lp929
g3
(g9
g5
Ntp930
Rp931
(lp932
I0
ag3
(g13
g5
Ntp933
Rp934
(lp935
I153
aI788000000
abaS'/base_link'
p936
abag3
(g18
g5
Ntp937
Rp938
(lp939
g3
(g22
g5
Ntp940
Rp941
(lp942
F0.323946495137192
aF-0.07562484741810088
aF0.6725520557223986
abag3
(g26
g5
Ntp943
Rp944
(lp945
F-0.10252263712646358
aF-0.48769685581870187
aF-0.046444081250184316
aF0.8657273433466302
abababag3
(g4
g5
Ntp946
Rp947
(lp948
g3
(g9
g5
Ntp949
Rp950
(lp951
I0
ag3
(g13
g5
Ntp952
Rp953
(lp954
I154
aI196000000
abaS'/base_link'
p955
abag3
(g18
g5
Ntp956
Rp957
(lp958
g3
(g22
g5
Ntp959
Rp960
(lp961
F0.31836909761754933
aF-0.11247192118669004
aF0.6767332634044252
abag3
(g26
g5
Ntp962
Rp963
(lp964
F-0.103944459249164
aF-0.48838097125227237
aF-0.04815361453295971
aF0.8650784968530295
abababag3
(g4
g5
Ntp965
Rp966
(lp967
g3
(g9
g5
Ntp968
Rp969
(lp970
I0
ag3
(g13
g5
Ntp971
Rp972
(lp973
I154
aI527000000
abaS'/base_link'
p974
abag3
(g18
g5
Ntp975
Rp976
(lp977
g3
(g22
g5
Ntp978
Rp979
(lp980
F0.31108043032424687
aF-0.14682576247063295
aF0.6817687421813369
abag3
(g26
g5
Ntp981
Rp982
(lp983
F-0.10313430207431139
aF-0.4878690034260261
aF-0.047142411832248064
aF0.8655199271180182
abababag3
(g4
g5
Ntp984
Rp985
(lp986
g3
(g9
g5
Ntp987
Rp988
(lp989
I0
ag3
(g13
g5
Ntp990
Rp991
(lp992
I154
aI986000000
abaS'/base_link'
p993
abag3
(g18
g5
Ntp994
Rp995
(lp996
g3
(g22
g5
Ntp997
Rp998
(lp999
F0.3187525261681118
aF-0.1551701350343783
aF0.6927308367419894
abag3
(g26
g5
Ntp1000
Rp1001
(lp1002
F-0.09881720939266568
aF-0.4867673537374184
aF-0.04504574190100233
aF0.8667546271003722
abababag3
(g4
g5
Ntp1003
Rp1004
(lp1005
g3
(g9
g5
Ntp1006
Rp1007
(lp1008
I0
ag3
(g13
g5
Ntp1009
Rp1010
(lp1011
I155
aI314000000
abaS'/base_link'
p1012
abag3
(g18
g5
Ntp1013
Rp1014
(lp1015
g3
(g22
g5
Ntp1016
Rp1017
(lp1018
F0.33042129251871544
aF-0.1559956997964801
aF0.7056670488867979
abag3
(g26
g5
Ntp1019
Rp1020
(lp1021
F-0.09601962548630848
aF-0.4866179320437402
aF-0.04133758010449406
aF0.867337549173358
abababag3
(g4
g5
Ntp1022
Rp1023
(lp1024
g3
(g9
g5
Ntp1025
Rp1026
(lp1027
I0
ag3
(g13
g5
Ntp1028
Rp1029
(lp1030
I155
aI662000000
abaS'/base_link'
p1031
abag3
(g18
g5
Ntp1032
Rp1033
(lp1034
g3
(g22
g5
Ntp1035
Rp1036
(lp1037
F0.34140200076047034
aF-0.15650003412200425
aF0.7190293693139344
abag3
(g26
g5
Ntp1038
Rp1039
(lp1040
F-0.09343737336507339
aF-0.4859687404442996
aF-0.03948821130506532
aF0.8680694221878474
abababag3
(g4
g5
Ntp1041
Rp1042
(lp1043
g3
(g9
g5
Ntp1044
Rp1045
(lp1046
I0
ag3
(g13
g5
Ntp1047
Rp1048
(lp1049
I156
aI16000000
abaS'/base_link'
p1050
abag3
(g18
g5
Ntp1051
Rp1052
(lp1053
g3
(g22
g5
Ntp1054
Rp1055
(lp1056
F0.3523685584831117
aF-0.15664633948104795
aF0.7337851581030285
abag3
(g26
g5
Ntp1057
Rp1058
(lp1059
F-0.0920383111572379
aF-0.48558981044063504
aF-0.03777103556515644
aF0.8685072447296495
abababag3
(g4
g5
Ntp1060
Rp1061
(lp1062
g3
(g9
g5
Ntp1063
Rp1064
(lp1065
I0
ag3
(g13
g5
Ntp1066
Rp1067
(lp1068
I156
aI348000000
abaS'/base_link'
p1069
abag3
(g18
g5
Ntp1070
Rp1071
(lp1072
g3
(g22
g5
Ntp1073
Rp1074
(lp1075
F0.36194026580229
aF-0.1564492167303604
aF0.7479802164157126
abag3
(g26
g5
Ntp1076
Rp1077
(lp1078
F-0.09183034476817477
aF-0.48553717188356743
aF-0.03658631434614294
aF0.8686093967380449
abababag3
(g4
g5
Ntp1079
Rp1080
(lp1081
g3
(g9
g5
Ntp1082
Rp1083
(lp1084
I0
ag3
(g13
g5
Ntp1085
Rp1086
(lp1087
I156
aI604000000
abaS'/base_link'
p1088
abag3
(g18
g5
Ntp1089
Rp1090
(lp1091
g3
(g22
g5
Ntp1092
Rp1093
(lp1094
F0.3716511396604923
aF-0.1557549977370658
aF0.7644991172799345
abag3
(g26
g5
Ntp1095
Rp1096
(lp1097
F-0.09276762175343917
aF-0.4857016541453918
aF-0.0360320350000008
aF0.8684409962504072
abababag3
(g4
g5
Ntp1098
Rp1099
(lp1100
g3
(g9
g5
Ntp1101
Rp1102
(lp1103
I0
ag3
(g13
g5
Ntp1104
Rp1105
(lp1106
I156
aI896000000
abaS'/base_link'
p1107
abag3
(g18
g5
Ntp1108
Rp1109
(lp1110
g3
(g22
g5
Ntp1111
Rp1112
(lp1113
F0.3801046424160878
aF-0.15483268186541205
aF0.7809711577347893
abag3
(g26
g5
Ntp1114
Rp1115
(lp1116
F-0.09432491074162769
aF-0.48581022758866854
aF-0.03718965522574454
aF0.868163673236804
abababag3
(g4
g5
Ntp1117
Rp1118
(lp1119
g3
(g9
g5
Ntp1120
Rp1121
(lp1122
I0
ag3
(g13
g5
Ntp1123
Rp1124
(lp1125
I157
aI278000000
abaS'/base_link'
p1126
abag3
(g18
g5
Ntp1127
Rp1128
(lp1129
g3
(g22
g5
Ntp1130
Rp1131
(lp1132
F0.3868023059344535
aF-0.15382948789660744
aF0.7962770855853195
abag3
(g26
g5
Ntp1133
Rp1134
(lp1135
F-0.09614978345610613
aF-0.4859235335019689
aF-0.0400361587480959
aF0.8677733832764185
abababag3
(g4
g5
Ntp1136
Rp1137
(lp1138
g3
(g9
g5
Ntp1139
Rp1140
(lp1141
I0
ag3
(g13
g5
Ntp1142
Rp1143
(lp1144
I157
aI610000000
abaS'/base_link'
p1145
abag3
(g18
g5
Ntp1146
Rp1147
(lp1148
g3
(g22
g5
Ntp1149
Rp1150
(lp1151
F0.3926132429767809
aF-0.15243630092408944
aF0.8119098575881081
abag3
(g26
g5
Ntp1152
Rp1153
(lp1154
F-0.09915044553746206
aF-0.4866930169071001
aF-0.04275312641862773
aF0.866874423792178
abababag3
(g4
g5
Ntp1155
Rp1156
(lp1157
g3
(g9
g5
Ntp1158
Rp1159
(lp1160
I0
ag3
(g13
g5
Ntp1161
Rp1162
(lp1163
I157
aI942000000
abaS'/base_link'
p1164
abag3
(g18
g5
Ntp1165
Rp1166
(lp1167
g3
(g22
g5
Ntp1168
Rp1169
(lp1170
F0.3973332729993309
aF-0.1509350384745489
aF0.8271595699275229
abag3
(g26
g5
Ntp1171
Rp1172
(lp1173
F-0.10231231347906626
aF-0.48754891223661206
aF-0.04668030124568574
aF0.8658228445606351
abababasS'RLAD'
p1174
(lp1175
g3
(g4
g5
Ntp1176
Rp1177
(lp1178
g3
(g9
g5
Ntp1179
Rp1180
(lp1181
I5
ag3
(g13
g5
Ntp1182
Rp1183
(lp1184
I0
aI0
abaS'base_link'
p1185
abag3
(g18
g5
Ntp1186
Rp1187
(lp1188
g3
(g22
g5
Ntp1189
Rp1190
(lp1191
F0.6347810491514794
aF-0.21537103844277652
aF0.4788729053956491
abag3
(g26
g5
Ntp1192
Rp1193
(lp1194
F-0.003535106021627294
aF-0.1448431289263165
aF-0.07587118322291157
aF0.9865351157382112
abababag3
(g4
g5
Ntp1195
Rp1196
(lp1197
g1180
ag3
(g18
g5
Ntp1198
Rp1199
(lp1200
g3
(g22
g5
Ntp1201
Rp1202
(lp1203
cnumpy.core.multiarray
scalar
p1204
(cnumpy
dtype
p1205
(S'f8'
p1206
I0
I1
tp1207
Rp1208
(I3
S'<'
p1209
NNNI-1
I-1
I0
tp1210
bS'\xf4\x0f\xbf,\x08\x96\xe4?'
p1211
tp1212
Rp1213
ag1204
(g1208
S'\x1a\xd2+;d\x9e\xc2\xbf'
p1214
tp1215
Rp1216
ag1204
(g1208
S'<\x08<\xd8%{\xe0?'
p1217
tp1218
Rp1219
abag3
(g26
g5
Ntp1220
Rp1221
(lp1222
g1204
(g1208
S'Y1\xc4\xd6\xe5\xe1p?'
p1223
tp1224
Rp1225
ag1204
(g1208
S';\xd8\x1fn\xeb\x9b\xc2\xbf'
p1226
tp1227
Rp1228
ag1204
(g1208
S'Ic\x0c\x17z\x1b\x97\xbf'
p1229
tp1230
Rp1231
ag1204
(g1208
S'Xy\xb1\xda\xc8\xa6\xef?'
p1232
tp1233
Rp1234
abababag3
(g4
g5
Ntp1235
Rp1236
(lp1237
g1180
ag3
(g18
g5
Ntp1238
Rp1239
(lp1240
g3
(g22
g5
Ntp1241
Rp1242
(lp1243
g1204
(g1208
S'l\xben\xb8\x99\xdc\xe5?'
p1244
tp1245
Rp1246
ag1204
(g1208
S'\xe0\xa8\x9c\xfe\x8b\x9e\xa4\xbf'
p1247
tp1248
Rp1249
ag1204
(g1208
S'h\xaf\xc2v8\xd4\xdf?'
p1250
tp1251
Rp1252
abag3
(g26
g5
Ntp1253
Rp1254
(lp1255
g1204
(g1208
S'\xe3\xf2\xaa\x86i\xc3\x99?'
p1256
tp1257
Rp1258
ag1204
(g1208
S'A\x97d=\x14\xdf\xc5\xbf'
p1259
tp1260
Rp1261
ag1204
(g1208
S'\x8cPq\xbd\x9f\xd9\xaa?'
p1262
tp1263
Rp1264
ag1204
(g1208
S'G\x11\x15\xbcry\xef?'
p1265
tp1266
Rp1267
abababag3
(g4
g5
Ntp1268
Rp1269
(lp1270
g1180
ag3
(g18
g5
Ntp1271
Rp1272
(lp1273
g3
(g22
g5
Ntp1274
Rp1275
(lp1276
g1204
(g1208
S'\xd3\x1c\nz\x87p\xe6?'
p1277
tp1278
Rp1279
ag1204
(g1208
S'\x824\x08\xf7n,\xa8?'
p1280
tp1281
Rp1282
ag1204
(g1208
S'4\xf5V\x01\xb2Z\xe1?'
p1283
tp1284
Rp1285
abag3
(g26
g5
Ntp1286
Rp1287
(lp1288
g1204
(g1208
S'{2uH\x99Y\xab?'
p1289
tp1290
Rp1291
ag1204
(g1208
S's\xb4Q\xcf;_\xc9\xbf'
p1292
tp1293
Rp1294
ag1204
(g1208
S'"M\x82\xe0zy\xc1?'
p1295
tp1296
Rp1297
ag1204
(g1208
S'\r-\xaf\x91"\x03\xef?'
p1298
tp1299
Rp1300
abababasS'GRASP'
p1301
(lp1302
cnumpy.core.multiarray
_reconstruct
p1303
(cnumpy
ndarray
p1304
(I0
tp1305
S'b'
p1306
tp1307
Rp1308
(I1
(I4
tp1309
g1205
(S'f8'
p1310
I0
I1
tp1311
Rp1312
(I3
S'<'
p1313
NNNI-1
I-1
I0
tp1314
bI00
S'\x1b\xe8\x88dL\xa9\xeb?C\xd5#\x94\xe2^\xd5??n\x8e\xefb\x0e\xd8?\xc2\xe6aX\xef4\xc0\xbf'
p1315
tp1316
bag1303
(g1304
(I0
tp1317
g1306
tp1318
Rp1319
(I1
(I4
tp1320
g1312
I00
S'\xba\xff\x90)\x8a\xcc\xde\xbf\x99\xa45\x1e\x03\x83\xe8?\x82\x1d\x06\xf5JG\xdb?\x0c0V\xe6\xffO\xbe?'
p1321
tp1322
bag1303
(g1304
(I0
tp1323
g1306
tp1324
Rp1325
(I1
(I4
tp1326
g1312
I00
S'\xd3\xc2\xb7\x1e\xe3\xa2\xc2\xbf*\x0e\xf6\x85\x0c\x94\xe1\xbf\x1a\xdf/s\x9cT\xea?\x80\x1e\x11\x9b\xd5\xf2\xaf?'
p1327
tp1328
bag1303
(g1304
(I0
tp1329
g1306
tp1330
Rp1331
(I1
(I4
tp1332
g1312
I00
S'\x00\x00\x00\x00\x00\x00\x00\x00\x00\x00\x00\x00\x00\x00\x00\x00\x00\x00\x00\x00\x00\x00\x00\x00\x00\x00\x00\x00\x00\x00\xf0?'
p1333
tp1334
basS'RLMR'
p1335
(lp1336
g3
(g4
g5
Ntp1337
Rp1338
(lp1339
g3
(g9
g5
Ntp1340
Rp1341
(lp1342
I11
ag3
(g13
g5
Ntp1343
Rp1344
(lp1345
I0
aI0
abag1185
abag3
(g18
g5
Ntp1346
Rp1347
(lp1348
g3
(g22
g5
Ntp1349
Rp1350
(lp1351
F0.6347810491514794
aF-0.21537103844277652
aF0.4788729053956491
abag1193
ababag3
(g4
g5
Ntp1352
Rp1353
(lp1354
g1341
ag3
(g18
g5
Ntp1355
Rp1356
(lp1357
g3
(g22
g5
Ntp1358
Rp1359
(lp1360
g1204
(g1208
S'\xed\x1c\x06=a9\xe4?'
p1361
tp1362
Rp1363
ag1204
(g1208
S'\xfa\xdcf\xd2\x0b\x8b\xcb\xbf'
p1364
tp1365
Rp1366
ag1204
(g1208
S'\xfa\xfe\xeaB\xe3G\xdf?'
p1367
tp1368
Rp1369
abag3
(g26
g5
Ntp1370
Rp1371
(lp1372
g1204
(g1208
S'\xe7\x1f\xa0\xe9\xfc\x81x?'
p1373
tp1374
Rp1375
ag1204
(g1208
S'\xed\x8c\xc9\x95:@\xc7\xbf'
p1376
tp1377
Rp1378
ag1204
(g1208
S'\x03\x82\xdcR\xe1\xe8\xb2\xbf'
p1379
tp1380
Rp1381
ag1204
(g1208
S'H\xf4\xb5\x9a\xce`\xef?'
p1382
tp1383
Rp1384
abababag3
(g4
g5
Ntp1385
Rp1386
(lp1387
g1341
ag3
(g18
g5
Ntp1388
Rp1389
(lp1390
g3
(g22
g5
Ntp1391
Rp1392
(lp1393
g1204
(g1208
S'\xd3\xcf\x96\x16\xb9\x16\xe4?'
p1394
tp1395
Rp1396
ag1204
(g1208
S'\xf08\xc5]GD\xcc\xbf'
p1397
tp1398
Rp1399
ag1204
(g1208
S'm<R\x03\xb7\xd8\xdf?'
p1400
tp1401
Rp1402
abag3
(g26
g5
Ntp1403
Rp1404
(lp1405
g1204
(g1208
S'f\xa8\xb2\xba\xb6l\x98?'
p1406
tp1407
Rp1408
ag1204
(g1208
S'}3\xe0*M\xb6\xcb\xbf'
p1409
tp1410
Rp1411
ag1204
(g1208
S'MP\xe1}\xf7\x8b\xb7\xbf'
p1412
tp1413
Rp1414
ag1204
(g1208
S'Q\x95\x9a\xca\xbb\x17\xef?'
p1415
tp1416
Rp1417
abababag3
(g4
g5
Ntp1418
Rp1419
(lp1420
g1341
ag3
(g18
g5
Ntp1421
Rp1422
(lp1423
g3
(g22
g5
Ntp1424
Rp1425
(lp1426
g1204
(g1208
S'N_\x9cS\x15\xe7\xe3?'
p1427
tp1428
Rp1429
ag1204
(g1208
S'\xd0\xd8\xaa\x00v\xef\xcc\xbf'
p1430
tp1431
Rp1432
ag1204
(g1208
S'\x9a\x83\x92N\x8e(\xe0?'
p1433
tp1434
Rp1435
abag3
(g26
g5
Ntp1436
Rp1437
(lp1438
g1204
(g1208
S'T\\\x88\x7f\x88\xd7\xa3?'
p1439
tp1440
Rp1441
ag1204
(g1208
S'\xb3\x9a\xaf\x90\x95\x00\xd0\xbf'
p1442
tp1443
Rp1444
ag1204
(g1208
S'\x04\x8e\x06\x9dg\\\xbb\xbf'
p1445
tp1446
Rp1447
ag1204
(g1208
S'\xa8\x84\x97p\xed\xc4\xee?'
p1448
tp1449
Rp1450
abababag3
(g4
g5
Ntp1451
Rp1452
(lp1453
g1341
ag3
(g18
g5
Ntp1454
Rp1455
(lp1456
g3
(g22
g5
Ntp1457
Rp1458
(lp1459
g1204
(g1208
S'\x9a\xb6\xd0\xd7\xe9\xb7\xe3?'
p1460
tp1461
Rp1462
ag1204
(g1208
S'\xc1\xa9\xd9}z]\xcd\xbf'
p1463
tp1464
Rp1465
ag1204
(g1208
S'p\xb0jZ\x0es\xe0?'
p1466
tp1467
Rp1468
abag3
(g26
g5
Ntp1469
Rp1470
(lp1471
g1204
(g1208
S'\xb3<\x04\xa0Ox\xaa?'
p1472
tp1473
Rp1474
ag1204
(g1208
S'\xb66\xf3\x8f7y\xd2\xbf'
p1475
tp1476
Rp1477
ag1204
(g1208
S'\x83\xb8g\xe3\xd2\x03\xbe\xbf'
p1478
tp1479
Rp1480
ag1204
(g1208
S'i3\xfc\\\xbf\\\xee?'
p1481
tp1482
Rp1483
abababag3
(g4
g5
Ntp1484
Rp1485
(lp1486
g1341
ag3
(g18
g5
Ntp1487
Rp1488
(lp1489
g3
(g22
g5
Ntp1490
Rp1491
(lp1492
g1204
(g1208
S'\xb4m|5y\x85\xe3?'
p1493
tp1494
Rp1495
ag1204
(g1208
S'"\xe9K\xfa\xae\x86\xcd\xbf'
p1496
tp1497
Rp1498
ag1204
(g1208
S'\x88\xbf4\xd3\xd6\xb1\xe0?'
p1499
tp1500
Rp1501
abag3
(g26
g5
Ntp1502
Rp1503
(lp1504
g1204
(g1208
S'\xc4<h\x1c;\x83\xad?'
p1505
tp1506
Rp1507
ag1204
(g1208
S'G\x87\xc96\xfc\xad\xd4\xbf'
p1508
tp1509
Rp1510
ag1204
(g1208
S'\xe7l4O\x7f\x99\xbe\xbf'
p1511
tp1512
Rp1513
ag1204
(g1208
S'M>(C\xf8\xfb\xed?'
p1514
tp1515
Rp1516
abababag3
(g4
g5
Ntp1517
Rp1518
(lp1519
g1341
ag3
(g18
g5
Ntp1520
Rp1521
(lp1522
g3
(g22
g5
Ntp1523
Rp1524
(lp1525
g1204
(g1208
S'\xbb\xf4#\x84,U\xe3?'
p1526
tp1527
Rp1528
ag1204
(g1208
S'\xff\x1d\xba\x04\x98F\xcd\xbf'
p1529
tp1530
Rp1531
ag1204
(g1208
S'i~\x8f\x7f\xae\xf8\xe0?'
p1532
tp1533
Rp1534
abag3
(g26
g5
Ntp1535
Rp1536
(lp1537
g1204
(g1208
S'\x06\xb2\x07\x0c\xeee\xac?'
p1538
tp1539
Rp1540
ag1204
(g1208
S'\xf93\xda6\x0e\xf5\xd6\xbf'
p1541
tp1542
Rp1543
ag1204
(g1208
S'\xa5F\xbf\x81\x0b|\xbc\xbf'
p1544
tp1545
Rp1546
ag1204
(g1208
S'\xa5,v\x03\xb2\x9a\xed?'
p1547
tp1548
Rp1549
abababag3
(g4
g5
Ntp1550
Rp1551
(lp1552
g1341
ag3
(g18
g5
Ntp1553
Rp1554
(lp1555
g3
(g22
g5
Ntp1556
Rp1557
(lp1558
g1204
(g1208
S'~\x95]\xff\xbe!\xe3?'
p1559
tp1560
Rp1561
ag1204
(g1208
S'3\x0b\xa1\xe3\x1d\xa5\xcc\xbf'
p1562
tp1563
Rp1564
ag1204
(g1208
S'\xf9\xea\xce\x80!4\xe1?'
p1565
tp1566
Rp1567
abag3
(g26
g5
Ntp1568
Rp1569
(lp1570
g1204
(g1208
S'%\x9e\x8b\xf6\xcc\x1f\xa8?'
p1571
tp1572
Rp1573
ag1204
(g1208
S'(o\x0e\x88]\x13\xd9\xbf'
p1574
tp1575
Rp1576
ag1204
(g1208
S'\xc1\xd4}Y\x91V\xb8\xbf'
p1577
tp1578
Rp1579
ag1204
(g1208
S'\xd4\xf6\x0b\x0b\xbd>\xed?'
p1580
tp1581
Rp1582
abababag3
(g4
g5
Ntp1583
Rp1584
(lp1585
g1341
ag3
(g18
g5
Ntp1586
Rp1587
(lp1588
g3
(g22
g5
Ntp1589
Rp1590
(lp1591
g1204
(g1208
S'\x8e\xbd!n;\xe9\xe2?'
p1592
tp1593
Rp1594
ag1204
(g1208
S')R\x07R:\x05\xcc\xbf'
p1595
tp1596
Rp1597
ag1204
(g1208
S'\n\xd7\xaf\x0c\tr\xe1?'
p1598
tp1599
Rp1600
abag3
(g26
g5
Ntp1601
Rp1602
(lp1603
g1204
(g1208
S'\xd1p;\xd6eE\xa3?'
p1604
tp1605
Rp1606
ag1204
(g1208
S'\xde=\xee\xdf2=\xdb\xbf'
p1607
tp1608
Rp1609
ag1204
(g1208
S'\x12\xbb\xf4\xfb\xa2 \xb4\xbf'
p1610
tp1611
Rp1612
ag1204
(g1208
S'GU+|\x85\xd2\xec?'
p1613
tp1614
Rp1615
abababag3
(g4
g5
Ntp1616
Rp1617
(lp1618
g1341
ag3
(g18
g5
Ntp1619
Rp1620
(lp1621
g3
(g22
g5
Ntp1622
Rp1623
(lp1624
g1204
(g1208
S'>\x19p\xc1\xf4\xaa\xe2?'
p1625
tp1626
Rp1627
ag1204
(g1208
S"\xdc'z\xe9p\x8c\xcb\xbf"
p1628
tp1629
Rp1630
ag1204
(g1208
S'r\xeaU\xb1\xae\xa2\xe1?'
p1631
tp1632
Rp1633
abag3
(g26
g5
Ntp1634
Rp1635
(lp1636
g1204
(g1208
S'*d\x1c\x05\xd0_\x9f?'
p1637
tp1638
Rp1639
ag1204
(g1208
S'>\x12\xcd\xff\xf1L\xdd\xbf'
p1640
tp1641
Rp1642
ag1204
(g1208
S'\xacT\x06NK\x94\xb1\xbf'
p1643
tp1644
Rp1645
ag1204
(g1208
S'\xb1\xc2t\x14\xf4X\xec?'
p1646
tp1647
Rp1648
abababag3
(g4
g5
Ntp1649
Rp1650
(lp1651
g1341
ag3
(g18
g5
Ntp1652
Rp1653
(lp1654
g3
(g22
g5
Ntp1655
Rp1656
(lp1657
g1204
(g1208
S'\x0eIu\x0f\xd6f\xe2?'
p1658
tp1659
Rp1660
ag1204
(g1208
S';\xf5M\xad\xec \xcb\xbf'
p1661
tp1662
Rp1663
ag1204
(g1208
S'\xff\r\x8858\xd5\xe1?'
p1664
tp1665
Rp1666
abag3
(g26
g5
Ntp1667
Rp1668
(lp1669
g1204
(g1208
S'\xe2\xe7e\x08\xf1S\x96?'
p1670
tp1671
Rp1672
ag1204
(g1208
S'\x10\x93X\xdeZd\xdf\xbf'
p1673
tp1674
Rp1675
ag1204
(g1208
S')u\x9atv\x1e\xae\xbf'
p1676
tp1677
Rp1678
ag1204
(g1208
S')\x98\x04DR\xd0\xeb?'
p1679
tp1680
Rp1681
abababag3
(g4
g5
Ntp1682
Rp1683
(lp1684
g1341
ag3
(g18
g5
Ntp1685
Rp1686
(lp1687
g3
(g22
g5
Ntp1688
Rp1689
(lp1690
g1204
(g1208
S'\x02\x04V\xf2\xc3!\xe2?'
p1691
tp1692
Rp1693
ag1204
(g1208
S'\x07Z\x8c\x8cT\xc2\xca\xbf'
p1694
tp1695
Rp1696
ag1204
(g1208
S'\xc2,\xfe\xceY\x07\xe2?'
p1697
tp1698
Rp1699
abag3
(g26
g5
Ntp1700
Rp1701
(lp1702
g1204
(g1208
S'\xe4\xfc\xd62Zk\x84?'
p1703
tp1704
Rp1705
ag1204
(g1208
S'\xb1Ts\x96\xa5\x9d\xe0\xbf'
p1706
tp1707
Rp1708
ag1204
(g1208
S'\x02\x80\xf3)\xfeV\xa9\xbf'
p1709
tp1710
Rp1711
ag1204
(g1208
S'\xc7R\xce\xb0\xdeL\xeb?'
p1712
tp1713
Rp1714
abababag3
(g4
g5
Ntp1715
Rp1716
(lp1717
g1341
ag3
(g18
g5
Ntp1718
Rp1719
(lp1720
g3
(g22
g5
Ntp1721
Rp1722
(lp1723
g1204
(g1208
S':\xeb=\xa4\xdc\xc9\xe1?'
p1724
tp1725
Rp1726
ag1204
(g1208
S'M\x16\xeb\x88\x08\x12\xcb\xbf'
p1727
tp1728
Rp1729
ag1204
(g1208
S'A\xd7-\r\x00l\xe2?'
p1730
tp1731
Rp1732
abag3
(g26
g5
Ntp1733
Rp1734
(lp1735
g1204
(g1208
S'pxZJ\xb9\xf2\x90\xbf'
p1736
tp1737
Rp1738
ag1204
(g1208
S'\x91\xfc\xb2\xc0\xeeI\xe1\xbf'
p1739
tp1740
Rp1741
ag1204
(g1208
S'\n\xa4\xda\x94\xc7\xea\xa5\xbf'
p1742
tp1743
Rp1744
ag1204
(g1208
S'{H9\xac6\xe3\xea?'
p1745
tp1746
Rp1747
abababag3
(g4
g5
Ntp1748
Rp1749
(lp1750
g1341
ag3
(g18
g5
Ntp1751
Rp1752
(lp1753
g3
(g22
g5
Ntp1754
Rp1755
(lp1756
g1204
(g1208
S';\xcb\xe8.\xf1b\xe1?'
p1757
tp1758
Rp1759
ag1204
(g1208
S'\xbew\x1c\xf8\xe6\xde\xcb\xbf'
p1760
tp1761
Rp1762
ag1204
(g1208
S'}`\xb2m\x0c\xfa\xe2?'
p1763
tp1764
Rp1765
abag3
(g26
g5
Ntp1766
Rp1767
(lp1768
g1204
(g1208
S'JG\xf3\xca$>\xaa\xbf'
p1769
tp1770
Rp1771
ag1204
(g1208
S'\xf1s\nTn\xd6\xe1\xbf'
p1772
tp1773
Rp1774
ag1204
(g1208
S'\xb9\x1bn\x12\xed!\xa5\xbf'
p1775
tp1776
Rp1777
ag1204
(g1208
S'\xd6\x11\x19\xa3\xd1{\xea?'
p1778
tp1779
Rp1780
abababag3
(g4
g5
Ntp1781
Rp1782
(lp1783
g1341
ag3
(g18
g5
Ntp1784
Rp1785
(lp1786
g3
(g22
g5
Ntp1787
Rp1788
(lp1789
g1204
(g1208
S'\xca\xdc5c\xd0\\\xe1?'
p1790
tp1791
Rp1792
ag1204
(g1208
S'\xdai\xc5lc\xd3\xc9\xbf'
p1793
tp1794
Rp1795
ag1204
(g1208
S']\xac\x80\xa1,W\xe3?'
p1796
tp1797
Rp1798
abag3
(g26
g5
Ntp1799
Rp1800
(lp1801
g1204
(g1208
S'e\xe4.a\xee4\xb1\xbf'
p1802
tp1803
Rp1804
ag1204
(g1208
S'\x8d\x873\x13\xfc\x1f\xe2\xbf'
p1805
tp1806
Rp1807
ag1204
(g1208
S'\xb7,"\xe6%\xca\x96\xbf'
p1808
tp1809
Rp1810
ag1204
(g1208
S'\x91\x8d\xd6sJF\xea?'
p1811
tp1812
Rp1813
abababag3
(g4
g5
Ntp1814
Rp1815
(lp1816
g1341
ag3
(g18
g5
Ntp1817
Rp1818
(lp1819
g3
(g22
g5
Ntp1820
Rp1821
(lp1822
g1204
(g1208
S'\xe9R\xfa\x9e\x05\xf9\xe1?'
p1823
tp1824
Rp1825
ag1204
(g1208
S'\xc9\xa9\\\xb3\xe2\x93\xc7\xbf'
p1826
tp1827
Rp1828
ag1204
(g1208
S'EPm\xf2\xc4-\xe3?'
p1829
tp1830
Rp1831
abag3
(g26
g5
Ntp1832
Rp1833
(lp1834
g1204
(g1208
S'1\xd7\x98\x04\x18\x0e\xac\xbf'
p1835
tp1836
Rp1837
ag1204
(g1208
S'\x97\x94\xd0\x9b\xba\xdc\xe0\xbf'
p1838
tp1839
Rp1840
ag1204
(g1208
S"'\xe4\x90\xf7\xd8\x1ec\xbf"
p1841
tp1842
Rp1843
ag1204
(g1208
S'\xf6\xeb\xb2\xf2\xdd#\xeb?'
p1844
tp1845
Rp1846
abababag3
(g4
g5
Ntp1847
Rp1848
(lp1849
g1341
ag3
(g18
g5
Ntp1850
Rp1851
(lp1852
g3
(g22
g5
Ntp1853
Rp1854
(lp1855
g1204
(g1208
S'BK3w\xb0?\xe2?'
p1856
tp1857
Rp1858
ag1204
(g1208
S'M\x03\xc1\xe3\xd0\x8a\xc7\xbf'
p1859
tp1860
Rp1861
ag1204
(g1208
S'\xf2\xf98\xebL\x02\xe3?'
p1862
tp1863
Rp1864
abag3
(g26
g5
Ntp1865
Rp1866
(lp1867
g1204
(g1208
S'\xe5\xc5C\xc7\xd7\xa8\xab\xbf'
p1868
tp1869
Rp1870
ag1204
(g1208
S'\xb4\x92\x9d>\x00\xb6\xdf\xbf'
p1871
tp1872
Rp1873
ag1204
(g1208
S'A\x16nW\xff\xc1\\?'
p1874
tp1875
Rp1876
ag1204
(g1208
S'~\xd8(t\xec\xbd\xeb?'
p1877
tp1878
Rp1879
abababag3
(g4
g5
Ntp1880
Rp1881
(lp1882
g1341
ag3
(g18
g5
Ntp1883
Rp1884
(lp1885
g3
(g22
g5
Ntp1886
Rp1887
(lp1888
g1204
(g1208
S'\x90\x01\r\xe1\x8d\x82\xe2?'
p1889
tp1890
Rp1891
ag1204
(g1208
S'\x18\x98N\xecU?\xc6\xbf'
p1892
tp1893
Rp1894
ag1204
(g1208
S'\xdb\xb6\x02?\xde\xda\xe2?'
p1895
tp1896
Rp1897
abag3
(g26
g5
Ntp1898
Rp1899
(lp1900
g1204
(g1208
S'\xe0\x19W\xce\x01\x00\xa9\xbf'
p1901
tp1902
Rp1903
ag1204
(g1208
S'H\xdd\xf7"\xcd\xb4\xdd\xbf'
p1904
tp1905
Rp1906
ag1204
(g1208
S'?\x8e\xa2\t\xa4\xb0{\xbf'
p1907
tp1908
Rp1909
ag1204
(g1208
S'X\xd8z3\xd4L\xec?'
p1910
tp1911
Rp1912
abababag3
(g4
g5
Ntp1913
Rp1914
(lp1915
g1341
ag3
(g18
g5
Ntp1916
Rp1917
(lp1918
g3
(g22
g5
Ntp1919
Rp1920
(lp1921
g1204
(g1208
S'\xf7\x87M9\xab\xc2\xe2?'
p1922
tp1923
Rp1924
ag1204
(g1208
S'N\x15w\xf3\xebF\xc8\xbf'
p1925
tp1926
Rp1927
ag1204
(g1208
S'LL\x85Y\xfd\xac\xe2?'
p1928
tp1929
Rp1930
abag3
(g26
g5
Ntp1931
Rp1932
(lp1933
g1204
(g1208
S'\xd6\xff5\xf8g\x9c\xa7\xbf'
p1934
tp1935
Rp1936
ag1204
(g1208
S'V\x82\x1c%\xc8\xbf\xdb\xbf'
p1937
tp1938
Rp1939
ag1204
(g1208
S'f\xb7\xe0l\xb0\xc5\x8c\xbf'
p1940
tp1941
Rp1942
ag1204
(g1208
S't\x03"\xa1\\\xcb\xec?'
p1943
tp1944
Rp1945
abababag3
(g4
g5
Ntp1946
Rp1947
(lp1948
g1341
ag3
(g18
g5
Ntp1949
Rp1950
(lp1951
g3
(g22
g5
Ntp1952
Rp1953
(lp1954
g1204
(g1208
S'Az\x1c\x04\x00\x00\xe3?'
p1955
tp1956
Rp1957
ag1204
(g1208
S'\xcc))\x0eJ\x7f\xc8\xbf'
p1958
tp1959
Rp1960
ag1204
(g1208
S'|\x08>0\xb1q\xe2?'
p1961
tp1962
Rp1963
abag3
(g26
g5
Ntp1964
Rp1965
(lp1966
g1204
(g1208
S'\xaaM\xf8\xbb\xd5\xa6\xa6\xbf'
p1967
tp1968
Rp1969
ag1204
(g1208
S'\xea\x95\xbc3A\x96\xd9\xbf'
p1970
tp1971
Rp1972
ag1204
(g1208
S'\x14A\x15\n\xe1\xe7\x92\xbf'
p1973
tp1974
Rp1975
ag1204
(g1208
S'\xf2\x89 \x80\x8bJ\xed?'
p1976
tp1977
Rp1978
abababag3
(g4
g5
Ntp1979
Rp1980
(lp1981
g1341
ag3
(g18
g5
Ntp1982
Rp1983
(lp1984
g3
(g22
g5
Ntp1985
Rp1986
(lp1987
g1204
(g1208
S'&\x18\xe3\x00\xb3;\xe3?'
p1988
tp1989
Rp1990
ag1204
(g1208
S'\xab\x1e\x01H\x16\xa6\xc8\xbf'
p1991
tp1992
Rp1993
ag1204
(g1208
S'\xfb\x13RN\x97;\xe2?'
p1994
tp1995
Rp1996
abag3
(g26
g5
Ntp1997
Rp1998
(lp1999
g1204
(g1208
S'\xb5\xb2\xd0\xe21J\xa7\xbf'
p2000
tp2001
Rp2002
ag1204
(g1208
S'\xb30\x12t\x15x\xd7\xbf'
p2003
tp2004
Rp2005
ag1204
(g1208
S'\x14.\xdb\xbf/\\\x96\xbf'
p2006
tp2007
Rp2008
ag1204
(g1208
S'o\x0e:\x93\x1b\xba\xed?'
p2009
tp2010
Rp2011
abababag3
(g4
g5
Ntp2012
Rp2013
(lp2014
g1341
ag3
(g18
g5
Ntp2015
Rp2016
(lp2017
g3
(g22
g5
Ntp2018
Rp2019
(lp2020
g1204
(g1208
S'\xe2\xc7\x99\xd4\x84p\xe3?'
p2021
tp2022
Rp2023
ag1204
(g1208
S'\xc6\x80\x85\x99\xa4\xbb\xc8\xbf'
p2024
tp2025
Rp2026
ag1204
(g1208
S'\xa4\x9b\xfd\x18\xaf\xfc\xe1?'
p2027
tp2028
Rp2029
abag3
(g26
g5
Ntp2030
Rp2031
(lp2032
g1204
(g1208
S'@\xe4_\xac\x08\x92\xa9\xbf'
p2033
tp2034
Rp2035
ag1204
(g1208
S'k"0\x93`>\xd5\xbf'
p2036
tp2037
Rp2038
ag1204
(g1208
S'\xa47e\xeb\xb4\xca\x97\xbf'
p2039
tp2040
Rp2041
ag1204
(g1208
S'\x9b<\xef\xbeZ"\xee?'
p2042
tp2043
Rp2044
abababag3
(g4
g5
Ntp2045
Rp2046
(lp2047
g1341
ag3
(g18
g5
Ntp2048
Rp2049
(lp2050
g3
(g22
g5
Ntp2051
Rp2052
(lp2053
g1204
(g1208
S'\xba\x0fR5\x04\xa1\xe3?'
p2054
tp2055
Rp2056
ag1204
(g1208
S'\xd6\x07\xb77\xec\xc3\xc8\xbf'
p2057
tp2058
Rp2059
ag1204
(g1208
S'<\x1a5\xc1\xad\xba\xe1?'
p2060
tp2061
Rp2062
abag3
(g26
g5
Ntp2063
Rp2064
(lp2065
g1204
(g1208
S's\x0e\x14\x8a#_\xac\xbf'
p2066
tp2067
Rp2068
ag1204
(g1208
S'\xb8\\\xb11r\t\xd3\xbf'
p2069
tp2070
Rp2071
ag1204
(g1208
S'y\xca\xa5\xe7\x8eK\x98\xbf'
p2072
tp2073
Rp2074
ag1204
(g1208
S'\x8ax\xee\xc3\x99}\xee?'
p2075
tp2076
Rp2077
abababag3
(g4
g5
Ntp2078
Rp2079
(lp2080
g1341
ag3
(g18
g5
Ntp2081
Rp2082
(lp2083
g3
(g22
g5
Ntp2084
Rp2085
(lp2086
g1204
(g1208
S'~\xa4[=\x91\xce\xe3?'
p2087
tp2088
Rp2089
ag1204
(g1208
S'A\xb3d\xfe\x08\xc9\xc8\xbf'
p2090
tp2091
Rp2092
ag1204
(g1208
S'\xedH{VCu\xe1?'
p2093
tp2094
Rp2095
abag3
(g26
g5
Ntp2096
Rp2097
(lp2098
g1204
(g1208
S'\x05T\n\xea\xef\xdc\xaf\xbf'
p2099
tp2100
Rp2101
ag1204
(g1208
S'\xd3\xfef\x16D\xcb\xd0\xbf'
p2102
tp2103
Rp2104
ag1204
(g1208
S'\xc1\xc04\x904)\x98\xbf'
p2105
tp2106
Rp2107
ag1204
(g1208
S'\xf9[kI\x1b\xce\xee?'
p2108
tp2109
Rp2110
abababag3
(g4
g5
Ntp2111
Rp2112
(lp2113
g1341
ag3
(g18
g5
Ntp2114
Rp2115
(lp2116
g3
(g22
g5
Ntp2117
Rp2118
(lp2119
g1204
(g1208
S'\xb6\x8eR.\xb1\xf6\xe3?'
p2120
tp2121
Rp2122
ag1204
(g1208
S'\xb6~\x89oL\xb6\xc8\xbf'
p2123
tp2124
Rp2125
ag1204
(g1208
S'aa@\x06]*\xe1?'
p2126
tp2127
Rp2128
abag3
(g26
g5
Ntp2129
Rp2130
(lp2131
g1204
(g1208
S'\xcd\x800\xc5\x10o\xb2\xbf'
p2132
tp2133
Rp2134
ag1204
(g1208
S'\n\xa7q\xe3\x19\xfc\xcc\xbf'
p2135
tp2136
Rp2137
ag1204
(g1208
S'x\xa7>\x0f\\\x0f\x96\xbf'
p2138
tp2139
Rp2140
ag1204
(g1208
S'?\x06\xb6fj\x13\xef?'
p2141
tp2142
Rp2143
abababag3
(g4
g5
Ntp2144
Rp2145
(lp2146
g1341
ag3
(g18
g5
Ntp2147
Rp2148
(lp2149
g3
(g22
g5
Ntp2150
Rp2151
(lp2152
g1204
(g1208
S'\x83R\x8aFB\x1b\xe4?'
p2153
tp2154
Rp2155
ag1204
(g1208
S'\x89\x8f8!\x88|\xc8\xbf'
p2156
tp2157
Rp2158
ag1204
(g1208
S'W\x81\xc2\xbc\xa7\xe0\xe0?'
p2159
tp2160
Rp2161
abag3
(g26
g5
Ntp2162
Rp2163
(lp2164
g1204
(g1208
S'\x87\xd5\xcdQ\xfas\xb5\xbf'
p2165
tp2166
Rp2167
ag1204
(g1208
S'\x83\xc8^\x8eNv\xc8\xbf'
p2168
tp2169
Rp2170
ag1204
(g1208
S'\xe7\xd8-\xa7&\xe2\x90\xbf'
p2171
tp2172
Rp2173
ag1204
(g1208
S'5\xdc\x189\x83J\xef?'
p2174
tp2175
Rp2176
abababag3
(g4
g5
Ntp2177
Rp2178
(lp2179
g1341
ag3
(g18
g5
Ntp2180
Rp2181
(lp2182
g3
(g22
g5
Ntp2183
Rp2184
(lp2185
g1204
(g1208
S'v\x0e\x80\x9ez3\xe4?'
p2186
tp2187
Rp2188
ag1204
(g1208
S'\x99\x13\xf8\x8d\xab|\xc8\xbf'
p2189
tp2190
Rp2191
ag1204
(g1208
S']R\x83\xac\xf4\x90\xe0?'
p2192
tp2193
Rp2194
abag3
(g26
g5
Ntp2195
Rp2196
(lp2197
g1204
(g1208
S'\x9d\xa1\xc1\xbf(\x81\xb8\xbf'
p2198
tp2199
Rp2200
ag1204
(g1208
S'\x04\x13\x90\x8e\x9e\xec\xc3\xbf'
p2201
tp2202
Rp2203
ag1204
(g1208
S'\xe5%\xa2\xc2z1\x8b\xbf'
p2204
tp2205
Rp2206
ag1204
(g1208
S'\xd5\xd3+\x90Tu\xef?'
p2207
tp2208
Rp2209
abababag3
(g4
g5
Ntp2210
Rp2211
(lp2212
g1341
ag3
(g18
g5
Ntp2213
Rp2214
(lp2215
g3
(g22
g5
Ntp2216
Rp2217
(lp2218
g1204
(g1208
S'\x04\xbe\rZ+H\xe4?'
p2219
tp2220
Rp2221
ag1204
(g1208
S'\x80\xe0\xd8\xaf\x05(\xc9\xbf'
p2222
tp2223
Rp2224
ag1204
(g1208
S'C^}\xea\x83N\xe0?'
p2225
tp2226
Rp2227
abag3
(g26
g5
Ntp2228
Rp2229
(lp2230
g1204
(g1208
S'.<<\xea\xbb\xa2\xb9\xbf'
p2231
tp2232
Rp2233
ag1204
(g1208
S'Ddl\x8fPy\xbf\xbf'
p2234
tp2235
Rp2236
ag1204
(g1208
S'\xcc\xdfV\x0f\xc3\xd8\x9d\xbf'
p2237
tp2238
Rp2239
ag1204
(g1208
S'u\x84\x12\x06\xd5\x94\xef?'
p2240
tp2241
Rp2242
abababas.