(dp0
S'LLAD'
p1
(lp2
ccopy_reg
_reconstructor
p3
(cgeometry_msgs.msg._PoseStamped
PoseStamped
p4
c__builtin__
object
p5
Ntp6
Rp7
(lp8
g3
(cstd_msgs.msg._Header
Header
p9
g5
Ntp10
Rp11
(lp12
I0
ag3
(cgenpy.rostime
Time
p13
g5
Ntp14
Rp15
(lp16
I147
aI289000000
abaS'/base_link'
p17
abag3
(cgeometry_msgs.msg._Pose
Pose
p18
g5
Ntp19
Rp20
(lp21
g3
(cgeometry_msgs.msg._Point
Point
p22
g5
Ntp23
Rp24
(lp25
F0.3242550067062675
aF-0.0752096288977306
aF0.6723931973391564
abag3
(cgeometry_msgs.msg._Quaternion
Quaternion
p26
g5
Ntp27
Rp28
(lp29
F-0.10158967737293953
aF-0.4880238708183467
aF-0.04478163608662168
aF0.8657406332338485
abababag3
(g4
g5
Ntp30
Rp31
(lp32
g3
(g9
g5
Ntp33
Rp34
(lp35
I0
ag3
(g13
g5
Ntp36
Rp37
(lp38
I147
aI605000000
abaS'/base_link'
p39
abag3
(g18
g5
Ntp40
Rp41
(lp42
g3
(g22
g5
Ntp43
Rp44
(lp45
F0.3259824779937879
aF-0.0894982020194488
aF0.670857158852045
abag3
(g26
g5
Ntp46
Rp47
(lp48
F-0.07891696419626473
aF-0.4738857603024828
aF-0.08783723172571958
aF0.8726333821642085
abababag3
(g4
g5
Ntp49
Rp50
(lp51
g3
(g9
g5
Ntp52
Rp53
(lp54
I0
ag3
(g13
g5
Ntp55
Rp56
(lp57
I147
aI870000000
abaS'/base_link'
p58
abag3
(g18
g5
Ntp59
Rp60
(lp61
g3
(g22
g5
Ntp62
Rp63
(lp64
F0.32724558289768546
aF-0.10374701415805977
aF0.6679565970902805
abag3
(g26
g5
Ntp65
Rp66
(lp67
F-0.05561940411462338
aF-0.4588458174380306
aF-0.13098010699220422
aF0.8770468683473366
abababag3
(g4
g5
Ntp68
Rp69
(lp70
g3
(g9
g5
Ntp71
Rp72
(lp73
I0
ag3
(g13
g5
Ntp74
Rp75
(lp76
I148
aI144000000
abaS'/base_link'
p77
abag3
(g18
g5
Ntp78
Rp79
(lp80
g3
(g22
g5
Ntp81
Rp82
(lp83
F0.3242859838003253
aF-0.12254974842079891
aF0.6648555334591117
abag3
(g26
g5
Ntp84
Rp85
(lp86
F-0.04442615772337283
aF-0.4464711538193561
aF-0.17422670932082943
aF0.8765471345434802
abababag3
(g4
g5
Ntp87
Rp88
(lp89
g3
(g9
g5
Ntp90
Rp91
(lp92
I0
ag3
(g13
g5
Ntp93
Rp94
(lp95
I148
aI472000000
abaS'/base_link'
p96
abag3
(g18
g5
Ntp97
Rp98
(lp99
g3
(g22
g5
Ntp100
Rp101
(lp102
F0.31687964779920547
aF-0.14455293238003186
aF0.662480016033392
abag3
(g26
g5
Ntp103
Rp104
(lp105
F-0.04414811091055323
aF-0.43714481383275167
aF-0.21847148368074584
aF0.8713355076321014
abababag3
(g4
g5
Ntp106
Rp107
(lp108
g3
(g9
g5
Ntp109
Rp110
(lp111
I0
ag3
(g13
g5
Ntp112
Rp113
(lp114
I148
aI719000000
abaS'/base_link'
p115
abag3
(g18
g5
Ntp116
Rp117
(lp118
g3
(g22
g5
Ntp119
Rp120
(lp121
F0.3062124812698351
aF-0.1671990469250358
aF0.6611253946192307
abag3
(g26
g5
Ntp122
Rp123
(lp124
F-0.05132945377854931
aF-0.4299968492782758
aF-0.2598939895578584
aF0.8630892833173468
abababag3
(g4
g5
Ntp125
Rp126
(lp127
g3
(g9
g5
Ntp128
Rp129
(lp130
I0
ag3
(g13
g5
Ntp131
Rp132
(lp133
I148
aI979000000
abaS'/base_link'
p134
abag3
(g18
g5
Ntp135
Rp136
(lp137
g3
(g22
g5
Ntp138
Rp139
(lp140
F0.290670568717006
aF-0.19151714884686266
aF0.6600071732438215
abag3
(g26
g5
Ntp141
Rp142
(lp143
F-0.06542949487200521
aF-0.42546230244865046
aF-0.30266551399071334
aF0.8503495734323765
abababag3
(g4
g5
Ntp144
Rp145
(lp146
g3
(g9
g5
Ntp147
Rp148
(lp149
I0
ag3
(g13
g5
Ntp150
Rp151
(lp152
I149
aI295000000
abaS'/base_link'
p153
abag3
(g18
g5
Ntp154
Rp155
(lp156
g3
(g22
g5
Ntp157
Rp158
(lp159
F0.26392470833726095
aF-0.19134082239051659
aF0.7048779396486139
abag3
(g26
g5
Ntp160
Rp161
(lp162
F-0.15239829004026254
aF-0.4395469921840055
aF-0.30446511442960006
aF0.8311884244563131
abababag3
(g4
g5
Ntp163
Rp164
(lp165
g3
(g9
g5
Ntp166
Rp167
(lp168
I0
ag3
(g13
g5
Ntp169
Rp170
(lp171
I149
aI548000000
abaS'/base_link'
p172
abag3
(g18
g5
Ntp173
Rp174
(lp175
g3
(g22
g5
Ntp176
Rp177
(lp178
F0.2547888360876731
aF-0.1770367921591456
aF0.736322195188193
abag3
(g26
g5
Ntp179
Rp180
(lp181
F-0.19874516165068268
aF-0.4463784561698715
aF-0.2927725994180726
aF0.821906831470472
abababag3
(g4
g5
Ntp182
Rp183
(lp184
g3
(g9
g5
Ntp185
Rp186
(lp187
I0
ag3
(g13
g5
Ntp188
Rp189
(lp190
I149
aI867000000
abaS'/base_link'
p191
abag3
(g18
g5
Ntp192
Rp193
(lp194
g3
(g22
g5
Ntp195
Rp196
(lp197
F0.24449448059150497
aF-0.15920553893432451
aF0.7695520647393732
abag3
(g26
g5
Ntp198
Rp199
(lp200
F-0.24821069926004233
aF-0.4514309159408269
aF-0.28456396726849886
aF0.808470732579776
abababag3
(g4
g5
Ntp201
Rp202
(lp203
g3
(g9
g5
Ntp204
Rp205
(lp206
I0
ag3
(g13
g5
Ntp207
Rp208
(lp209
I150
aI153000000
abaS'/base_link'
p210
abag3
(g18
g5
Ntp211
Rp212
(lp213
g3
(g22
g5
Ntp214
Rp215
(lp216
F0.25614976551351
aF-0.1526950419165987
aF0.7797394156631052
abag3
(g26
g5
Ntp217
Rp218
(lp219
F-0.30123572880900856
aF-0.3735519336288226
aF-0.28395559861719205
aF0.8301115627342058
abababag3
(g4
g5
Ntp220
Rp221
(lp222
g3
(g9
g5
Ntp223
Rp224
(lp225
I0
ag3
(g13
g5
Ntp226
Rp227
(lp228
I150
aI466000000
abaS'/base_link'
p229
abag3
(g18
g5
Ntp230
Rp231
(lp232
g3
(g22
g5
Ntp233
Rp234
(lp235
F0.2681074465428905
aF-0.15475460642152933
aF0.7761943749234691
abag3
(g26
g5
Ntp236
Rp237
(lp238
F-0.3086679599280034
aF-0.3432513052833463
aF-0.27791177234897485
aF0.8424177578404998
abababag3
(g4
g5
Ntp239
Rp240
(lp241
g3
(g9
g5
Ntp242
Rp243
(lp244
I0
ag3
(g13
g5
Ntp245
Rp246
(lp247
I150
aI800000000
abaS'/base_link'
p248
abag3
(g18
g5
Ntp249
Rp250
(lp251
g3
(g22
g5
Ntp252
Rp253
(lp254
F0.28282251522823687
aF-0.15395366985684655
aF0.7754153927847609
abag3
(g26
g5
Ntp255
Rp256
(lp257
F-0.31322560148606515
aF-0.3258786822212188
aF-0.2640425917907162
aF0.8520412647095771
abababag3
(g4
g5
Ntp258
Rp259
(lp260
g3
(g9
g5
Ntp261
Rp262
(lp263
I0
ag3
(g13
g5
Ntp264
Rp265
(lp266
I151
aI172000000
abaS'/base_link'
p267
abag3
(g18
g5
Ntp268
Rp269
(lp270
g3
(g22
g5
Ntp271
Rp272
(lp273
F0.2985309216447236
aF-0.1510041748187076
aF0.7770080541787233
abag3
(g26
g5
Ntp274
Rp275
(lp276
F-0.3174875195151416
aF-0.3154488975565585
aF-0.24656970296426003
aF0.8595912107290249
abababag3
(g4
g5
Ntp277
Rp278
(lp279
g3
(g9
g5
Ntp280
Rp281
(lp282
I0
ag3
(g13
g5
Ntp283
Rp284
(lp285
I151
aI526000000
abaS'/base_link'
p286
abag3
(g18
g5
Ntp287
Rp288
(lp289
g3
(g22
g5
Ntp290
Rp291
(lp292
F0.31678114702114657
aF-0.1446546802425548
aF0.7812094618801452
abag3
(g26
g5
Ntp293
Rp294
(lp295
F-0.3216115022024056
aF-0.3135313977789396
aF-0.22211318721705664
aF0.8654073239360625
abababag3
(g4
g5
Ntp296
Rp297
(lp298
g3
(g9
g5
Ntp299
Rp300
(lp301
I0
ag3
(g13
g5
Ntp302
Rp303
(lp304
I151
aI857000000
abaS'/base_link'
p305
abag3
(g18
g5
Ntp306
Rp307
(lp308
g3
(g22
g5
Ntp309
Rp310
(lp311
F0.3342038836337245
aF-0.13672641687184886
aF0.7867618290433642
abag3
(g26
g5
Ntp312
Rp313
(lp314
F-0.3254099847380313
aF-0.3166947675149228
aF-0.19715611958442533
aF0.8688741166428396
abababag3
(g4
g5
Ntp315
Rp316
(lp317
g3
(g9
g5
Ntp318
Rp319
(lp320
I0
ag3
(g13
g5
Ntp321
Rp322
(lp323
I152
aI234000000
abaS'/base_link'
p324
abag3
(g18
g5
Ntp325
Rp326
(lp327
g3
(g22
g5
Ntp328
Rp329
(lp330
F0.3516613302107991
aF-0.1266055433925425
aF0.7939160152856458
abag3
(g26
g5
Ntp331
Rp332
(lp333
F-0.3293004508267149
aF-0.32330950468433184
aF-0.1697199628175277
aF0.8707624885623584
abababag3
(g4
g5
Ntp334
Rp335
(lp336
g3
(g9
g5
Ntp337
Rp338
(lp339
I0
ag3
(g13
g5
Ntp340
Rp341
(lp342
I152
aI677000000
abaS'/base_link'
p343
abag3
(g18
g5
Ntp344
Rp345
(lp346
g3
(g22
g5
Ntp347
Rp348
(lp349
F0.3679257760848931
aF-0.11592511619842628
aF0.8001277403185021
abag3
(g26
g5
Ntp350
Rp351
(lp352
F-0.33322104000809155
aF-0.3280289057903992
aF-0.14469343370858906
aF0.8720232713084539
abababag3
(g4
g5
Ntp353
Rp354
(lp355
g3
(g9
g5
Ntp356
Rp357
(lp358
I0
ag3
(g13
g5
Ntp359
Rp360
(lp361
I153
aI3000000
abaS'/base_link'
p362
abag3
(g18
g5
Ntp363
Rp364
(lp365
g3
(g22
g5
Ntp366
Rp367
(lp368
F0.381480859520412
aF-0.10819957483939185
aF0.8018023429048444
abag3
(g26
g5
Ntp369
Rp370
(lp371
F-0.341837627663466
aF-0.3182371242267931
aF-0.12645875845887924
aF0.8751459029706492
abababasS'LLAB'
p372
(lp373
g3
(g4
g5
Ntp374
Rp375
(lp376
g3
(g9
g5
Ntp377
Rp378
(lp379
I0
ag3
(g13
g5
Ntp380
Rp381
(lp382
I153
aI788000000
abaS'/base_link'
p383
abag3
(g18
g5
Ntp384
Rp385
(lp386
g3
(g22
g5
Ntp387
Rp388
(lp389
F0.323946495137192
aF-0.07562484741810088
aF0.6725520557223986
abag3
(g26
g5
Ntp390
Rp391
(lp392
F-0.10252263712646358
aF-0.48769685581870187
aF-0.046444081250184316
aF0.8657273433466302
abababag3
(g4
g5
Ntp393
Rp394
(lp395
g3
(g9
g5
Ntp396
Rp397
(lp398
I0
ag3
(g13
g5
Ntp399
Rp400
(lp401
I154
aI196000000
abaS'/base_link'
p402
abag3
(g18
g5
Ntp403
Rp404
(lp405
g3
(g22
g5
Ntp406
Rp407
(lp408
F0.31836909761754933
aF-0.11247192118669004
aF0.6767332634044252
abag3
(g26
g5
Ntp409
Rp410
(lp411
F-0.103944459249164
aF-0.48838097125227237
aF-0.04815361453295971
aF0.8650784968530295
abababag3
(g4
g5
Ntp412
Rp413
(lp414
g3
(g9
g5
Ntp415
Rp416
(lp417
I0
ag3
(g13
g5
Ntp418
Rp419
(lp420
I154
aI527000000
abaS'/base_link'
p421
abag3
(g18
g5
Ntp422
Rp423
(lp424
g3
(g22
g5
Ntp425
Rp426
(lp427
F0.31108043032424687
aF-0.14682576247063295
aF0.6817687421813369
abag3
(g26
g5
Ntp428
Rp429
(lp430
F-0.10313430207431139
aF-0.4878690034260261
aF-0.047142411832248064
aF0.8655199271180182
abababag3
(g4
g5
Ntp431
Rp432
(lp433
g3
(g9
g5
Ntp434
Rp435
(lp436
I0
ag3
(g13
g5
Ntp437
Rp438
(lp439
I154
aI986000000
abaS'/base_link'
p440
abag3
(g18
g5
Ntp441
Rp442
(lp443
g3
(g22
g5
Ntp444
Rp445
(lp446
F0.3187525261681118
aF-0.1551701350343783
aF0.6927308367419894
abag3
(g26
g5
Ntp447
Rp448
(lp449
F-0.09881720939266568
aF-0.4867673537374184
aF-0.04504574190100233
aF0.8667546271003722
abababag3
(g4
g5
Ntp450
Rp451
(lp452
g3
(g9
g5
Ntp453
Rp454
(lp455
I0
ag3
(g13
g5
Ntp456
Rp457
(lp458
I155
aI314000000
abaS'/base_link'
p459
abag3
(g18
g5
Ntp460
Rp461
(lp462
g3
(g22
g5
Ntp463
Rp464
(lp465
F0.33042129251871544
aF-0.1559956997964801
aF0.7056670488867979
abag3
(g26
g5
Ntp466
Rp467
(lp468
F-0.09601962548630848
aF-0.4866179320437402
aF-0.04133758010449406
aF0.867337549173358
abababag3
(g4
g5
Ntp469
Rp470
(lp471
g3
(g9
g5
Ntp472
Rp473
(lp474
I0
ag3
(g13
g5
Ntp475
Rp476
(lp477
I155
aI662000000
abaS'/base_link'
p478
abag3
(g18
g5
Ntp479
Rp480
(lp481
g3
(g22
g5
Ntp482
Rp483
(lp484
F0.34140200076047034
aF-0.15650003412200425
aF0.7190293693139344
abag3
(g26
g5
Ntp485
Rp486
(lp487
F-0.09343737336507339
aF-0.4859687404442996
aF-0.03948821130506532
aF0.8680694221878474
abababag3
(g4
g5
Ntp488
Rp489
(lp490
g3
(g9
g5
Ntp491
Rp492
(lp493
I0
ag3
(g13
g5
Ntp494
Rp495
(lp496
I156
aI16000000
abaS'/base_link'
p497
abag3
(g18
g5
Ntp498
Rp499
(lp500
g3
(g22
g5
Ntp501
Rp502
(lp503
F0.3523685584831117
aF-0.15664633948104795
aF0.7337851581030285
abag3
(g26
g5
Ntp504
Rp505
(lp506
F-0.0920383111572379
aF-0.48558981044063504
aF-0.03777103556515644
aF0.8685072447296495
abababag3
(g4
g5
Ntp507
Rp508
(lp509
g3
(g9
g5
Ntp510
Rp511
(lp512
I0
ag3
(g13
g5
Ntp513
Rp514
(lp515
I156
aI348000000
abaS'/base_link'
p516
abag3
(g18
g5
Ntp517
Rp518
(lp519
g3
(g22
g5
Ntp520
Rp521
(lp522
F0.36194026580229
aF-0.1564492167303604
aF0.7479802164157126
abag3
(g26
g5
Ntp523
Rp524
(lp525
F-0.09183034476817477
aF-0.48553717188356743
aF-0.03658631434614294
aF0.8686093967380449
abababag3
(g4
g5
Ntp526
Rp527
(lp528
g3
(g9
g5
Ntp529
Rp530
(lp531
I0
ag3
(g13
g5
Ntp532
Rp533
(lp534
I156
aI604000000
abaS'/base_link'
p535
abag3
(g18
g5
Ntp536
Rp537
(lp538
g3
(g22
g5
Ntp539
Rp540
(lp541
F0.3716511396604923
aF-0.1557549977370658
aF0.7644991172799345
abag3
(g26
g5
Ntp542
Rp543
(lp544
F-0.09276762175343917
aF-0.4857016541453918
aF-0.0360320350000008
aF0.8684409962504072
abababag3
(g4
g5
Ntp545
Rp546
(lp547
g3
(g9
g5
Ntp548
Rp549
(lp550
I0
ag3
(g13
g5
Ntp551
Rp552
(lp553
I156
aI896000000
abaS'/base_link'
p554
abag3
(g18
g5
Ntp555
Rp556
(lp557
g3
(g22
g5
Ntp558
Rp559
(lp560
F0.3801046424160878
aF-0.15483268186541205
aF0.7809711577347893
abag3
(g26
g5
Ntp561
Rp562
(lp563
F-0.09432491074162769
aF-0.48581022758866854
aF-0.03718965522574454
aF0.868163673236804
abababag3
(g4
g5
Ntp564
Rp565
(lp566
g3
(g9
g5
Ntp567
Rp568
(lp569
I0
ag3
(g13
g5
Ntp570
Rp571
(lp572
I157
aI278000000
abaS'/base_link'
p573
abag3
(g18
g5
Ntp574
Rp575
(lp576
g3
(g22
g5
Ntp577
Rp578
(lp579
F0.3868023059344535
aF-0.15382948789660744
aF0.7962770855853195
abag3
(g26
g5
Ntp580
Rp581
(lp582
F-0.09614978345610613
aF-0.4859235335019689
aF-0.0400361587480959
aF0.8677733832764185
abababag3
(g4
g5
Ntp583
Rp584
(lp585
g3
(g9
g5
Ntp586
Rp587
(lp588
I0
ag3
(g13
g5
Ntp589
Rp590
(lp591
I157
aI610000000
abaS'/base_link'
p592
abag3
(g18
g5
Ntp593
Rp594
(lp595
g3
(g22
g5
Ntp596
Rp597
(lp598
F0.3926132429767809
aF-0.15243630092408944
aF0.8119098575881081
abag3
(g26
g5
Ntp599
Rp600
(lp601
F-0.09915044553746206
aF-0.4866930169071001
aF-0.04275312641862773
aF0.866874423792178
abababag3
(g4
g5
Ntp602
Rp603
(lp604
g3
(g9
g5
Ntp605
Rp606
(lp607
I0
ag3
(g13
g5
Ntp608
Rp609
(lp610
I157
aI942000000
abaS'/base_link'
p611
abag3
(g18
g5
Ntp612
Rp613
(lp614
g3
(g22
g5
Ntp615
Rp616
(lp617
F0.3973332729993309
aF-0.1509350384745489
aF0.8271595699275229
abag3
(g26
g5
Ntp618
Rp619
(lp620
F-0.10231231347906626
aF-0.48754891223661206
aF-0.04668030124568574
aF0.8658228445606351
abababasS'RLAB'
p621
(lp622
g3
(g4
g5
Ntp623
Rp624
(lp625
g3
(g9
g5
Ntp626
Rp627
(lp628
I0
ag3
(g13
g5
Ntp629
Rp630
(lp631
I4859
aI793000000
abaS'/base_link'
p632
abag3
(g18
g5
Ntp633
Rp634
(lp635
g3
(g22
g5
Ntp636
Rp637
(lp638
F0.3608732962143377
aF-0.05555982006840394
aF0.5720916165585321
abag3
(g26
g5
Ntp639
Rp640
(lp641
F-0.05707103541645489
aF-0.026534082402433275
aF-0.22724457120075695
aF0.9718018029656761
abababag3
(g4
g5
Ntp642
Rp643
(lp644
g3
(g9
g5
Ntp645
Rp646
(lp647
I0
ag3
(g13
g5
Ntp648
Rp649
(lp650
I4860
aI254000000
abaS'/base_link'
p651
abag3
(g18
g5
Ntp652
Rp653
(lp654
g3
(g22
g5
Ntp655
Rp656
(lp657
F0.3572756353919946
aF-0.058441748428288164
aF0.5872096742383004
abag3
(g26
g5
Ntp658
Rp659
(lp660
F-0.034277185198742496
aF-0.06095755217257355
aF-0.23332387059744303
aF0.9698810353942419
abababag3
(g4
g5
Ntp661
Rp662
(lp663
g3
(g9
g5
Ntp664
Rp665
(lp666
I0
ag3
(g13
g5
Ntp667
Rp668
(lp669
I4860
aI692000000
abaS'/base_link'
p670
abag3
(g18
g5
Ntp671
Rp672
(lp673
g3
(g22
g5
Ntp674
Rp675
(lp676
F0.3555547363317792
aF-0.05889312817950859
aF0.5944582353447072
abag3
(g26
g5
Ntp677
Rp678
(lp679
F0.0023682154086625985
aF-0.09409209221762617
aF-0.23400621554762677
aF0.967668414707727
abababag3
(g4
g5
Ntp680
Rp681
(lp682
g3
(g9
g5
Ntp683
Rp684
(lp685
I0
ag3
(g13
g5
Ntp686
Rp687
(lp688
I4861
aI131000000
abaS'/base_link'
p689
abag3
(g18
g5
Ntp690
Rp691
(lp692
g3
(g22
g5
Ntp693
Rp694
(lp695
F0.35020679839868435
aF-0.0613342942376926
aF0.6130846297764138
abag3
(g26
g5
Ntp696
Rp697
(lp698
F0.017982591512010104
aF-0.12901591678336502
aF-0.2376682887828893
aF0.9625722331991886
abababag3
(g4
g5
Ntp699
Rp700
(lp701
g3
(g9
g5
Ntp702
Rp703
(lp704
I0
ag3
(g13
g5
Ntp705
Rp706
(lp707
I4861
aI592000000
abaS'/base_link'
p708
abag3
(g18
g5
Ntp709
Rp710
(lp711
g3
(g22
g5
Ntp712
Rp713
(lp714
F0.3398666265169269
aF-0.06381617866408548
aF0.6462105595873668
abag3
(g26
g5
Ntp715
Rp716
(lp717
F0.0026936907956960727
aF-0.16429586268459478
aF-0.24215151366116935
aF0.9562229122784218
abababag3
(g4
g5
Ntp718
Rp719
(lp720
g3
(g9
g5
Ntp721
Rp722
(lp723
I0
ag3
(g13
g5
Ntp724
Rp725
(lp726
I4862
aI59000000
abaS'/base_link'
p727
abag3
(g18
g5
Ntp728
Rp729
(lp730
g3
(g22
g5
Ntp731
Rp732
(lp733
F0.33325094004244254
aF-0.06475279342270159
aF0.6627876137086037
abag3
(g26
g5
Ntp734
Rp735
(lp736
F0.02112409855896871
aF-0.19897753559852108
aF-0.2428795882674313
aF0.9491950370657514
abababag3
(g4
g5
Ntp737
Rp738
(lp739
g3
(g9
g5
Ntp740
Rp741
(lp742
I0
ag3
(g13
g5
Ntp743
Rp744
(lp745
I4862
aI452000000
abaS'/base_link'
p746
abag3
(g18
g5
Ntp747
Rp748
(lp749
g3
(g22
g5
Ntp750
Rp751
(lp752
F0.32546036442239545
aF-0.06472667521977005
aF0.681759907968572
abag3
(g26
g5
Ntp753
Rp754
(lp755
F0.03359684895052275
aF-0.2338424877580389
aF-0.24095126283209287
aF0.9413455431452081
abababag3
(g4
g5
Ntp756
Rp757
(lp758
g3
(g9
g5
Ntp759
Rp760
(lp761
I0
ag3
(g13
g5
Ntp762
Rp763
(lp764
I4862
aI826000000
abaS'/base_link'
p765
abag3
(g18
g5
Ntp766
Rp767
(lp768
g3
(g22
g5
Ntp769
Rp770
(lp771
F0.31569640649751834
aF-0.06452440060092099
aF0.7030666970889875
abag3
(g26
g5
Ntp772
Rp773
(lp774
F0.03908739832937194
aF-0.26773463187599394
aF-0.23970164912628242
aF0.9323805347561733
abababag3
(g4
g5
Ntp775
Rp776
(lp777
g3
(g9
g5
Ntp778
Rp779
(lp780
I0
ag3
(g13
g5
Ntp781
Rp782
(lp783
I4863
aI281000000
abaS'/base_link'
p784
abag3
(g18
g5
Ntp785
Rp786
(lp787
g3
(g22
g5
Ntp788
Rp789
(lp790
F0.30426587132783744
aF-0.06270961112378977
aF0.726403592961532
abag3
(g26
g5
Ntp791
Rp792
(lp793
F0.041798288855593835
aF-0.30273623344851364
aF-0.23669309759026613
aF0.9222689702897285
abababag3
(g4
g5
Ntp794
Rp795
(lp796
g3
(g9
g5
Ntp797
Rp798
(lp799
I0
ag3
(g13
g5
Ntp800
Rp801
(lp802
I4863
aI722000000
abaS'/base_link'
p803
abag3
(g18
g5
Ntp804
Rp805
(lp806
g3
(g22
g5
Ntp807
Rp808
(lp809
F0.2912608364816133
aF-0.05888119957078518
aF0.7510186727459243
abag3
(g26
g5
Ntp810
Rp811
(lp812
F0.038593159413602286
aF-0.33667115514793033
aF-0.23252501971547204
aF0.9116442379262614
abababag3
(g4
g5
Ntp813
Rp814
(lp815
g3
(g9
g5
Ntp816
Rp817
(lp818
I0
ag3
(g13
g5
Ntp819
Rp820
(lp821
I4864
aI145000000
abaS'/base_link'
p822
abag3
(g18
g5
Ntp823
Rp824
(lp825
g3
(g22
g5
Ntp826
Rp827
(lp828
F0.2785915493553028
aF-0.05509274006890953
aF0.7726347122028343
abag3
(g26
g5
Ntp829
Rp830
(lp831
F0.04108898964717477
aF-0.3703419403795609
aF-0.22668690449231768
aF0.8998730963071221
abababag3
(g4
g5
Ntp832
Rp833
(lp834
g3
(g9
g5
Ntp835
Rp836
(lp837
I0
ag3
(g13
g5
Ntp838
Rp839
(lp840
I4864
aI545000000
abaS'/base_link'
p841
abag3
(g18
g5
Ntp842
Rp843
(lp844
g3
(g22
g5
Ntp845
Rp846
(lp847
F0.29092097202719114
aF-0.05861732508059317
aF0.7515890079373211
abag3
(g26
g5
Ntp848
Rp849
(lp850
F0.038372236925845786
aF-0.3369661733083928
aF-0.23272527700788254
aF0.9114934530323349
abababag3
(g4
g5
Ntp851
Rp852
(lp853
g3
(g9
g5
Ntp854
Rp855
(lp856
I0
ag3
(g13
g5
Ntp857
Rp858
(lp859
I4864
aI983000000
abaS'/base_link'
p860
abag3
(g18
g5
Ntp861
Rp862
(lp863
g3
(g22
g5
Ntp864
Rp865
(lp866
F0.30180961418850527
aF-0.06142134150831252
aF0.7321590265349168
abag3
(g26
g5
Ntp867
Rp868
(lp869
F0.032369702227196206
aF-0.30463681632946893
aF-0.23819323904819195
aF0.9216358247084901
abababag3
(g4
g5
Ntp870
Rp871
(lp872
g3
(g9
g5
Ntp873
Rp874
(lp875
I0
ag3
(g13
g5
Ntp876
Rp877
(lp878
I4865
aI401000000
abaS'/base_link'
p879
abag3
(g18
g5
Ntp880
Rp881
(lp882
g3
(g22
g5
Ntp883
Rp884
(lp885
F0.31300463641481446
aF-0.0635758018810176
aF0.7099610881499272
abag3
(g26
g5
Ntp886
Rp887
(lp888
F0.027394057086734005
aF-0.2695863590441911
aF-0.24125804508158408
aF0.9318622839975002
abababag3
(g4
g5
Ntp889
Rp890
(lp891
g3
(g9
g5
Ntp892
Rp893
(lp894
I0
ag3
(g13
g5
Ntp895
Rp896
(lp897
I4865
aI836000000
abaS'/base_link'
p898
abag3
(g18
g5
Ntp899
Rp900
(lp901
g3
(g22
g5
Ntp902
Rp903
(lp904
F0.3240475446975692
aF-0.06463742461256018
aF0.6861416821693224
abag3
(g26
g5
Ntp905
Rp906
(lp907
F0.026342213565702988
aF-0.23481664261881374
aF-0.24246203099744632
aF0.9409460110220355
abababag3
(g4
g5
Ntp908
Rp909
(lp910
g3
(g9
g5
Ntp911
Rp912
(lp913
I0
ag3
(g13
g5
Ntp914
Rp915
(lp916
I4866
aI265000000
abaS'/base_link'
p917
abag3
(g18
g5
Ntp918
Rp919
(lp920
g3
(g22
g5
Ntp921
Rp922
(lp923
F0.333471299087638
aF-0.06503115901427875
aF0.6614590563111821
abag3
(g26
g5
Ntp924
Rp925
(lp926
F0.024637941924804924
aF-0.19932122549970346
aF-0.24308651090153705
aF0.9489852312342502
abababag3
(g4
g5
Ntp927
Rp928
(lp929
g3
(g9
g5
Ntp930
Rp931
(lp932
I0
ag3
(g13
g5
Ntp933
Rp934
(lp935
I4866
aI711000000
abaS'/base_link'
p936
abag3
(g18
g5
Ntp937
Rp938
(lp939
g3
(g22
g5
Ntp940
Rp941
(lp942
F0.34281075050367094
aF-0.06382905131344213
aF0.6362396451683754
abag3
(g26
g5
Ntp943
Rp944
(lp945
F0.021580987849292545
aF-0.16278745735480812
aF-0.24131673212897511
aF0.9564521626751636
abababag3
(g4
g5
Ntp946
Rp947
(lp948
g3
(g9
g5
Ntp949
Rp950
(lp951
I0
ag3
(g13
g5
Ntp952
Rp953
(lp954
I4867
aI177000000
abaS'/base_link'
p955
abag3
(g18
g5
Ntp956
Rp957
(lp958
g3
(g22
g5
Ntp959
Rp960
(lp961
F0.35117084547140826
aF-0.061394410589444365
aF0.6102294521161361
abag3
(g26
g5
Ntp962
Rp963
(lp964
F0.019804627035360525
aF-0.126411604143375
aF-0.2369788356882055
aF0.963051875301508
abababag3
(g4
g5
Ntp965
Rp966
(lp967
g3
(g9
g5
Ntp968
Rp969
(lp970
I0
ag3
(g13
g5
Ntp971
Rp972
(lp973
I4867
aI585000000
abaS'/base_link'
p974
abag3
(g18
g5
Ntp975
Rp976
(lp977
g3
(g22
g5
Ntp978
Rp979
(lp980
F0.3578397762991971
aF-0.05766887710948358
aF0.5855796636693484
abag3
(g26
g5
Ntp981
Rp982
(lp983
F0.017503284715984894
aF-0.09163912949303828
aF-0.23212974769862987
aF0.9682002299128418
abababag3
(g4
g5
Ntp984
Rp985
(lp986
g3
(g9
g5
Ntp987
Rp988
(lp989
I0
ag3
(g13
g5
Ntp990
Rp991
(lp992
I4868
aI54000000
abaS'/base_link'
p993
abag3
(g18
g5
Ntp994
Rp995
(lp996
g3
(g22
g5
Ntp997
Rp998
(lp999
F0.3636426394605364
aF-0.053090274077262474
aF0.5607040473967868
abag3
(g26
g5
Ntp1000
Rp1001
(lp1002
F0.01384128343309311
aF-0.056126703581115635
aF-0.2257787006911283
aF0.9724619223045539
abababag3
(g4
g5
Ntp1003
Rp1004
(lp1005
g3
(g9
g5
Ntp1006
Rp1007
(lp1008
I0
ag3
(g13
g5
Ntp1009
Rp1010
(lp1011
I4868
aI563000000
abaS'/base_link'
p1012
abag3
(g18
g5
Ntp1013
Rp1014
(lp1015
g3
(g22
g5
Ntp1016
Rp1017
(lp1018
F0.34844093630094475
aF-0.0622692441813464
aF0.6201139326905816
abag3
(g26
g5
Ntp1019
Rp1020
(lp1021
F-0.04994658544557199
aF-0.09481205886763067
aF-0.2412812106373085
aF0.964520289827541
abababag3
(g4
g5
Ntp1022
Rp1023
(lp1024
g3
(g9
g5
Ntp1025
Rp1026
(lp1027
I0
ag3
(g13
g5
Ntp1028
Rp1029
(lp1030
I4868
aI989000000
abaS'/base_link'
p1031
abag3
(g18
g5
Ntp1032
Rp1033
(lp1034
g3
(g22
g5
Ntp1035
Rp1036
(lp1037
F0.3349111500456592
aF-0.06309110985500489
aF0.6628429525489673
abag3
(g26
g5
Ntp1038
Rp1039
(lp1040
F-0.08114776955801252
aF-0.1316437627902445
aF-0.2508298966850491
aF0.9555989337285559
abababag3
(g4
g5
Ntp1041
Rp1042
(lp1043
g3
(g9
g5
Ntp1044
Rp1045
(lp1046
I0
ag3
(g13
g5
Ntp1047
Rp1048
(lp1049
I4869
aI533000000
abaS'/base_link'
p1050
abag3
(g18
g5
Ntp1051
Rp1052
(lp1053
g3
(g22
g5
Ntp1054
Rp1055
(lp1056
F0.31768674248228557
aF-0.06224972178590879
aF0.7050214316736367
abag3
(g26
g5
Ntp1057
Rp1058
(lp1059
F-0.11395143750025886
aF-0.16775012847748655
aF-0.26333793318435894
aF0.9431479720773414
abababag3
(g4
g5
Ntp1060
Rp1061
(lp1062
g3
(g9
g5
Ntp1063
Rp1064
(lp1065
I0
ag3
(g13
g5
Ntp1066
Rp1067
(lp1068
I4870
aI96000000
abaS'/base_link'
p1069
abag3
(g18
g5
Ntp1070
Rp1071
(lp1072
g3
(g22
g5
Ntp1073
Rp1074
(lp1075
F0.2990858597669046
aF-0.056452666830049195
aF0.7454572914790069
abag3
(g26
g5
Ntp1076
Rp1077
(lp1078
F-0.14557128317442486
aF-0.203446521894846
aF-0.2721034766370266
aF0.9291814743342037
abababag3
(g4
g5
Ntp1079
Rp1080
(lp1081
g3
(g9
g5
Ntp1082
Rp1083
(lp1084
I0
ag3
(g13
g5
Ntp1085
Rp1086
(lp1087
I4870
aI539000000
abaS'/base_link'
p1088
abag3
(g18
g5
Ntp1089
Rp1090
(lp1091
g3
(g22
g5
Ntp1092
Rp1093
(lp1094
F0.29468706834641145
aF-0.05454614067633718
aF0.7540695081162004
abag3
(g26
g5
Ntp1095
Rp1096
(lp1097
F-0.1123950741380373
aF-0.2393746067367554
aF-0.2652752214194235
aF0.9271980381018958
abababag3
(g4
g5
Ntp1098
Rp1099
(lp1100
g3
(g9
g5
Ntp1101
Rp1102
(lp1103
I0
ag3
(g13
g5
Ntp1104
Rp1105
(lp1106
I4870
aI990000000
abaS'/base_link'
p1107
abag3
(g18
g5
Ntp1108
Rp1109
(lp1110
g3
(g22
g5
Ntp1111
Rp1112
(lp1113
F0.2908074744348321
aF-0.054213689085304745
aF0.759849666417637
abag3
(g26
g5
Ntp1114
Rp1115
(lp1116
F-0.07427171098107303
aF-0.27435572197319513
aF-0.25667411113159955
aF0.9237591955933723
abababag3
(g4
g5
Ntp1117
Rp1118
(lp1119
g3
(g9
g5
Ntp1120
Rp1121
(lp1122
I0
ag3
(g13
g5
Ntp1123
Rp1124
(lp1125
I4871
aI440000000
abaS'/base_link'
p1126
abag3
(g18
g5
Ntp1127
Rp1128
(lp1129
g3
(g22
g5
Ntp1130
Rp1131
(lp1132
F0.32482222693159063
aF-0.06507185946878587
aF0.6837700376285714
abag3
(g26
g5
Ntp1133
Rp1134
(lp1135
F0.03092886383616552
aF-0.23476602468886199
aF-0.2414629467196938
aF0.9410759610121995
abababag3
(g4
g5
Ntp1136
Rp1137
(lp1138
g3
(g9
g5
Ntp1139
Rp1140
(lp1141
I0
ag3
(g13
g5
Ntp1142
Rp1143
(lp1144
I4871
aI846000000
abaS'/base_link'
p1145
abag3
(g18
g5
Ntp1146
Rp1147
(lp1148
g3
(g22
g5
Ntp1149
Rp1150
(lp1151
F0.3397554530563415
aF-0.06509703037437746
aF0.6424732288679704
abag3
(g26
g5
Ntp1152
Rp1153
(lp1154
F0.0626092699843352
aF-0.19794568610393173
aF-0.23865343603850125
aF0.9486527932451837
abababag3
(g4
g5
Ntp1155
Rp1156
(lp1157
g3
(g9
g5
Ntp1158
Rp1159
(lp1160
I0
ag3
(g13
g5
Ntp1161
Rp1162
(lp1163
I4872
aI279000000
abaS'/base_link'
p1164
abag3
(g18
g5
Ntp1165
Rp1166
(lp1167
g3
(g22
g5
Ntp1168
Rp1169
(lp1170
F0.3530012373798574
aF-0.06073131214794403
aF0.5988360675949929
abag3
(g26
g5
Ntp1171
Rp1172
(lp1173
F0.09668358271334838
aF-0.15972894302641977
aF-0.2336725814625015
aF0.9542201393106438
abababasS'RLAD'
p1174
(lp1175
g3
(g4
g5
Ntp1176
Rp1177
(lp1178
g3
(g9
g5
Ntp1179
Rp1180
(lp1181
I0
ag3
(g13
g5
Ntp1182
Rp1183
(lp1184
I6421
aI183000000
abaS'/base_link'
p1185
abag3
(g18
g5
Ntp1186
Rp1187
(lp1188
g3
(g22
g5
Ntp1189
Rp1190
(lp1191
F0.6341711269662327
aF-0.21608505591502042
aF0.47877087014618486
abag3
(g26
g5
Ntp1192
Rp1193
(lp1194
F-0.0039604742893410315
aF-0.14450812325922513
aF-0.07740784690535131
aF0.9864632492865498
abababag3
(g4
g5
Ntp1195
Rp1196
(lp1197
g3
(g9
g5
Ntp1198
Rp1199
(lp1200
I0
ag3
(g13
g5
Ntp1201
Rp1202
(lp1203
I6421
aI534000000
abaS'/base_link'
p1204
abag3
(g18
g5
Ntp1205
Rp1206
(lp1207
g3
(g22
g5
Ntp1208
Rp1209
(lp1210
F0.6540300937977395
aF-0.15177474006619365
aF0.4794169429657625
abag3
(g26
g5
Ntp1211
Rp1212
(lp1213
F0.0037134992814418966
aF-0.1450503573039753
aF-0.02410912997630271
aF0.9891235279887248
abababag3
(g4
g5
Ntp1214
Rp1215
(lp1216
g3
(g9
g5
Ntp1217
Rp1218
(lp1219
I0
ag3
(g13
g5
Ntp1220
Rp1221
(lp1222
I6421
aI855000000
abaS'/base_link'
p1223
abag3
(g18
g5
Ntp1224
Rp1225
(lp1226
g3
(g22
g5
Ntp1227
Rp1228
(lp1229
F0.6900264631259162
aF-0.044818319348091495
aF0.5055288620359968
abag3
(g26
g5
Ntp1230
Rp1231
(lp1232
F0.024737885555826816
aF-0.1705597206239675
aF0.0509039632729468
aF0.9837205930761069
abababag3
(g4
g5
Ntp1233
Rp1234
(lp1235
g3
(g9
g5
Ntp1236
Rp1237
(lp1238
I0
ag3
(g13
g5
Ntp1239
Rp1240
(lp1241
I6422
aI97000000
abaS'/base_link'
p1242
abag3
(g18
g5
Ntp1243
Rp1244
(lp1245
g3
(g22
g5
Ntp1246
Rp1247
(lp1248
F0.7085130130372026
aF0.08329407564944248
aF0.5384352114319868
abag3
(g26
g5
Ntp1249
Rp1250
(lp1251
F0.052984631978226907
aF-0.1979434762752885
aF0.13499981506888994
aF0.9694256335096321
abababasS'RLMR'
p1252
(lp1253
g3
(g4
g5
Ntp1254
Rp1255
(lp1256
g3
(g9
g5
Ntp1257
Rp1258
(lp1259
I0
ag3
(g13
g5
Ntp1260
Rp1261
(lp1262
I5656
aI688000000
abaS'/base_link'
p1263
abag3
(g18
g5
Ntp1264
Rp1265
(lp1266
g3
(g22
g5
Ntp1267
Rp1268
(lp1269
F0.6466200274344333
aF-0.21372490810606432
aF0.4932942798866114
abag3
(g26
g5
Ntp1270
Rp1271
(lp1272
F-9.925274291166461e-06
aF-0.1597130787941205
aF-0.07631645265696131
aF0.98420908927801
abababag3
(g4
g5
Ntp1273
Rp1274
(lp1275
g3
(g9
g5
Ntp1276
Rp1277
(lp1278
I0
ag3
(g13
g5
Ntp1279
Rp1280
(lp1281
I5657
aI231000000
abaS'/base_link'
p1282
abag3
(g18
g5
Ntp1283
Rp1284
(lp1285
g3
(g22
g5
Ntp1286
Rp1287
(lp1288
F0.6435425426253104
aF-0.21358179218585124
aF0.5030954189707745
abag3
(g26
g5
Ntp1289
Rp1290
(lp1291
F0.009460459938045939
aF-0.19642731961036589
aF-0.07425430779387764
aF0.9776569467776005
abababag3
(g4
g5
Ntp1292
Rp1293
(lp1294
g3
(g9
g5
Ntp1295
Rp1296
(lp1297
I0
ag3
(g13
g5
Ntp1298
Rp1299
(lp1300
I5657
aI688000000
abaS'/base_link'
p1301
abag3
(g18
g5
Ntp1302
Rp1303
(lp1304
g3
(g22
g5
Ntp1305
Rp1306
(lp1307
F0.639043737197552
aF-0.21927633390046347
aF0.5117743013046078
abag3
(g26
g5
Ntp1308
Rp1309
(lp1310
F0.027580595505045935
aF-0.23109754333302526
aF-0.09217606729528866
aF0.9681615613289974
abababag3
(g4
g5
Ntp1311
Rp1312
(lp1313
g3
(g9
g5
Ntp1314
Rp1315
(lp1316
I0
ag3
(g13
g5
Ntp1317
Rp1318
(lp1319
I5658
aI129000000
abaS'/base_link'
p1320
abag3
(g18
g5
Ntp1321
Rp1322
(lp1323
g3
(g22
g5
Ntp1324
Rp1325
(lp1326
F0.633006413725903
aF-0.22453464126826692
aF0.5189164424033428
abag3
(g26
g5
Ntp1327
Rp1328
(lp1329
F0.04268188088087866
aF-0.2644388244761222
aF-0.10692606147672776
aF0.9575057088765748
abababag3
(g4
g5
Ntp1330
Rp1331
(lp1332
g3
(g9
g5
Ntp1333
Rp1334
(lp1335
I0
ag3
(g13
g5
Ntp1336
Rp1337
(lp1338
I5658
aI664000000
abaS'/base_link'
p1339
abag3
(g18
g5
Ntp1340
Rp1341
(lp1342
g3
(g22
g5
Ntp1343
Rp1344
(lp1345
F0.6269731444887017
aF-0.22793478020020164
aF0.5278143017661054
abag3
(g26
g5
Ntp1346
Rp1347
(lp1348
F0.05575145948408013
aF-0.3028285238863013
aF-0.11718640965107485
aF0.9441684199756573
abababag3
(g4
g5
Ntp1349
Rp1350
(lp1351
g3
(g9
g5
Ntp1352
Rp1353
(lp1354
I0
ag3
(g13
g5
Ntp1355
Rp1356
(lp1357
I5659
aI51000000
abaS'/base_link'
p1358
abag3
(g18
g5
Ntp1359
Rp1360
(lp1361
g3
(g22
g5
Ntp1362
Rp1363
(lp1364
F0.62058463654439
aF-0.2292280020357333
aF0.5352804490105892
abag3
(g26
g5
Ntp1365
Rp1366
(lp1367
F0.061698089072931915
aF-0.33710947165391164
aF-0.11946150259016813
aF0.9318151637126691
abababag3
(g4
g5
Ntp1368
Rp1369
(lp1370
g3
(g9
g5
Ntp1371
Rp1372
(lp1373
I0
ag3
(g13
g5
Ntp1374
Rp1375
(lp1376
I5659
aI605000000
abaS'/base_link'
p1377
abag3
(g18
g5
Ntp1378
Rp1379
(lp1380
g3
(g22
g5
Ntp1381
Rp1382
(lp1383
F0.614427333791857
aF-0.22731269980347762
aF0.5437533827558099
abag3
(g26
g5
Ntp1384
Rp1385
(lp1386
F0.059365030527644407
aF-0.3725313776651557
aF-0.1113188255557747
aF0.9194043098018607
abababag3
(g4
g5
Ntp1387
Rp1388
(lp1389
g3
(g9
g5
Ntp1390
Rp1391
(lp1392
I0
ag3
(g13
g5
Ntp1393
Rp1394
(lp1395
I5660
aI54000000
abaS'/base_link'
p1396
abag3
(g18
g5
Ntp1397
Rp1398
(lp1399
g3
(g22
g5
Ntp1400
Rp1401
(lp1402
F0.607930925148544
aF-0.222418647917059
aF0.5508388440317624
abag3
(g26
g5
Ntp1403
Rp1404
(lp1405
F0.05074232117490811
aF-0.4054944396899088
aF-0.09533046140205385
aF0.9076957526347806
abababag3
(g4
g5
Ntp1406
Rp1407
(lp1408
g3
(g9
g5
Ntp1409
Rp1410
(lp1411
I0
ag3
(g13
g5
Ntp1412
Rp1413
(lp1414
I5660
aI495000000
abaS'/base_link'
p1415
abag3
(g18
g5
Ntp1416
Rp1417
(lp1418
g3
(g22
g5
Ntp1419
Rp1420
(lp1421
F0.6008047839576427
aF-0.21757439176848753
aF0.558204674835362
abag3
(g26
g5
Ntp1422
Rp1423
(lp1424
F0.04097986188372071
aF-0.4391309828385149
aF-0.07910992822511619
aF0.8939945470121661
abababag3
(g4
g5
Ntp1425
Rp1426
(lp1427
g3
(g9
g5
Ntp1428
Rp1429
(lp1430
I0
ag3
(g13
g5
Ntp1431
Rp1432
(lp1433
I5660
aI906000000
abaS'/base_link'
p1434
abag3
(g18
g5
Ntp1435
Rp1436
(lp1437
g3
(g22
g5
Ntp1438
Rp1439
(lp1440
F0.593024984225186
aF-0.21391551701288808
aF0.563925710927337
abag3
(g26
g5
Ntp1441
Rp1442
(lp1443
F0.03379134545462909
aF-0.47113511659193075
aF-0.06934080273665613
aF0.8786817967626904
abababag3
(g4
g5
Ntp1444
Rp1445
(lp1446
g3
(g9
g5
Ntp1447
Rp1448
(lp1449
I0
ag3
(g13
g5
Ntp1450
Rp1451
(lp1452
I5661
aI352000000
abaS'/base_link'
p1453
abag3
(g18
g5
Ntp1454
Rp1455
(lp1456
g3
(g22
g5
Ntp1457
Rp1458
(lp1459
F0.584525098071096
aF-0.21066259440356636
aF0.5698536251599181
abag3
(g26
g5
Ntp1460
Rp1461
(lp1462
F0.024765854427372013
aF-0.5035784570179338
aF-0.05971179418180587
aF0.8615276500017333
abababag3
(g4
g5
Ntp1463
Rp1464
(lp1465
g3
(g9
g5
Ntp1466
Rp1467
(lp1468
I0
ag3
(g13
g5
Ntp1469
Rp1470
(lp1471
I5661
aI778000000
abaS'/base_link'
p1472
abag3
(g18
g5
Ntp1473
Rp1474
(lp1475
g3
(g22
g5
Ntp1476
Rp1477
(lp1478
F0.5759106962981098
aF-0.20780376527404482
aF0.5757265680821287
abag3
(g26
g5
Ntp1479
Rp1480
(lp1481
F0.012750362521402506
aF-0.5320955527790799
aF-0.05062765886831544
aF0.8450731276793811
abababag3
(g4
g5
Ntp1482
Rp1483
(lp1484
g3
(g9
g5
Ntp1485
Rp1486
(lp1487
I0
ag3
(g13
g5
Ntp1488
Rp1489
(lp1490
I5662
aI224000000
abaS'/base_link'
p1491
abag3
(g18
g5
Ntp1492
Rp1493
(lp1494
g3
(g22
g5
Ntp1495
Rp1496
(lp1497
F0.5648098938866983
aF-0.2102932542459475
aF0.5876675015225408
abag3
(g26
g5
Ntp1498
Rp1499
(lp1500
F-0.013902019370441493
aF-0.5529416895233468
aF-0.044398530373081634
aF0.8319200636751113
abababag3
(g4
g5
Ntp1501
Rp1502
(lp1503
g3
(g9
g5
Ntp1504
Rp1505
(lp1506
I0
ag3
(g13
g5
Ntp1507
Rp1508
(lp1509
I5662
aI657000000
abaS'/base_link'
p1510
abag3
(g18
g5
Ntp1511
Rp1512
(lp1513
g3
(g22
g5
Ntp1514
Rp1515
(lp1516
F0.5517224142959429
aF-0.21662643366247164
aF0.6045852246532095
abag3
(g26
g5
Ntp1517
Rp1518
(lp1519
F-0.04865699539255931
aF-0.5698993761816913
aF-0.04343705349137332
aF0.8191217371130345
abababag3
(g4
g5
Ntp1520
Rp1521
(lp1522
g3
(g9
g5
Ntp1523
Rp1524
(lp1525
I0
ag3
(g13
g5
Ntp1526
Rp1527
(lp1528
I5663
aI199000000
abaS'/base_link'
p1529
abag3
(g18
g5
Ntp1530
Rp1531
(lp1532
g3
(g22
g5
Ntp1533
Rp1534
(lp1535
F0.5506279434132645
aF-0.2007047829992911
aF0.616001718719101
abag3
(g26
g5
Ntp1536
Rp1537
(lp1538
F-0.0649203529912665
aF-0.5788221276661442
aF-0.024685410725114747
aF0.812490567815319
abababag3
(g4
g5
Ntp1539
Rp1540
(lp1541
g3
(g9
g5
Ntp1542
Rp1543
(lp1544
I0
ag3
(g13
g5
Ntp1545
Rp1546
(lp1547
I5663
aI638000000
abaS'/base_link'
p1548
abag3
(g18
g5
Ntp1549
Rp1550
(lp1551
g3
(g22
g5
Ntp1552
Rp1553
(lp1554
F0.5698423519417511
aF-0.18312113243244443
aF0.6116168256442864
abag3
(g26
g5
Ntp1555
Rp1556
(lp1557
F-0.05274011698428032
aF-0.5398286725720365
aF-0.0044831128554608515
aF0.8401091512587651
abababag3
(g4
g5
Ntp1558
Rp1559
(lp1560
g3
(g9
g5
Ntp1561
Rp1562
(lp1563
I0
ag3
(g13
g5
Ntp1564
Rp1565
(lp1566
I5664
aI70000000
abaS'/base_link'
p1567
abag3
(g18
g5
Ntp1568
Rp1569
(lp1570
g3
(g22
g5
Ntp1571
Rp1572
(lp1573
F0.5786268169608507
aF-0.18282037555405356
aF0.6065779521696772
abag3
(g26
g5
Ntp1574
Rp1575
(lp1576
F-0.05198329551075595
aF-0.5086685895188541
aF-0.0003078200250101192
aF0.859391591925109
abababag3
(g4
g5
Ntp1577
Rp1578
(lp1579
g3
(g9
g5
Ntp1580
Rp1581
(lp1582
I0
ag3
(g13
g5
Ntp1583
Rp1584
(lp1585
I5664
aI465000000
abaS'/base_link'
p1586
abag3
(g18
g5
Ntp1587
Rp1588
(lp1589
g3
(g22
g5
Ntp1590
Rp1591
(lp1592
F0.5869321636031003
aF-0.18614142640764908
aF0.6019999866424194
abag3
(g26
g5
Ntp1593
Rp1594
(lp1595
F-0.04661585673076288
aF-0.4775953777489533
aF-0.008668506392347994
aF0.8772995349656908
abababag3
(g4
g5
Ntp1596
Rp1597
(lp1598
g3
(g9
g5
Ntp1599
Rp1600
(lp1601
I0
ag3
(g13
g5
Ntp1602
Rp1603
(lp1604
I5664
aI877000000
abaS'/base_link'
p1605
abag3
(g18
g5
Ntp1606
Rp1607
(lp1608
g3
(g22
g5
Ntp1609
Rp1610
(lp1611
F0.594926008518479
aF-0.1885136117192453
aF0.5966298019497637
abag3
(g26
g5
Ntp1612
Rp1613
(lp1614
F-0.04375305422751156
aF-0.44723778531293706
aF-0.015842117972882954
aF0.8932038182477037
abababag3
(g4
g5
Ntp1615
Rp1616
(lp1617
g3
(g9
g5
Ntp1618
Rp1619
(lp1620
I0
ag3
(g13
g5
Ntp1621
Rp1622
(lp1623
I5665
aI322000000
abaS'/base_link'
p1624
abag3
(g18
g5
Ntp1625
Rp1626
(lp1627
g3
(g22
g5
Ntp1628
Rp1629
(lp1630
F0.6026303013586419
aF-0.1902003192763221
aF0.589615220400157
abag3
(g26
g5
Ntp1631
Rp1632
(lp1633
F-0.04177316853628337
aF-0.41368384990722473
aF-0.020146244481929865
aF0.9092385845033472
abababag3
(g4
g5
Ntp1634
Rp1635
(lp1636
g3
(g9
g5
Ntp1637
Rp1638
(lp1639
I0
ag3
(g13
g5
Ntp1640
Rp1641
(lp1642
I5665
aI876000000
abaS'/base_link'
p1643
abag3
(g18
g5
Ntp1644
Rp1645
(lp1646
g3
(g22
g5
Ntp1647
Rp1648
(lp1649
F0.6101161019297939
aF-0.19135385929113455
aF0.583231156460563
abag3
(g26
g5
Ntp1650
Rp1651
(lp1652
F-0.042933323343610365
aF-0.3807961723050047
aF-0.02345935015585575
aF0.9233637765229883
abababag3
(g4
g5
Ntp1653
Rp1654
(lp1655
g3
(g9
g5
Ntp1656
Rp1657
(lp1658
I0
ag3
(g13
g5
Ntp1659
Rp1660
(lp1661
I5666
aI336000000
abaS'/base_link'
p1662
abag3
(g18
g5
Ntp1663
Rp1664
(lp1665
g3
(g22
g5
Ntp1666
Rp1667
(lp1668
F0.6167953617635564
aF-0.19197590674682458
aF0.5757495392778237
abag3
(g26
g5
Ntp1669
Rp1670
(lp1671
F-0.04733332776585645
aF-0.34621899313226195
aF-0.024842404476457244
aF0.9366294997579997
abababag3
(g4
g5
Ntp1672
Rp1673
(lp1674
g3
(g9
g5
Ntp1675
Rp1676
(lp1677
I0
ag3
(g13
g5
Ntp1678
Rp1679
(lp1680
I5666
aI777000000
abaS'/base_link'
p1681
abag3
(g18
g5
Ntp1682
Rp1683
(lp1684
g3
(g22
g5
Ntp1685
Rp1686
(lp1687
F0.6229588376738906
aF-0.19219088907159415
aF0.5678757400842225
abag3
(g26
g5
Ntp1688
Rp1689
(lp1690
F-0.05276763170603313
aF-0.31191113067214743
aF-0.02533508221531366
aF0.9483064679817924
abababag3
(g4
g5
Ntp1691
Rp1692
(lp1693
g3
(g9
g5
Ntp1694
Rp1695
(lp1696
I0
ag3
(g13
g5
Ntp1697
Rp1698
(lp1699
I5667
aI174000000
abaS'/base_link'
p1700
abag3
(g18
g5
Ntp1701
Rp1702
(lp1703
g3
(g22
g5
Ntp1704
Rp1705
(lp1706
F0.6287755016539445
aF-0.19230714615300304
aF0.5595753031388535
abag3
(g26
g5
Ntp1707
Rp1708
(lp1709
F-0.05956247276966103
aF-0.2770202254293119
aF-0.025224424553370373
aF0.9586844292814023
abababag3
(g4
g5
Ntp1710
Rp1711
(lp1712
g3
(g9
g5
Ntp1713
Rp1714
(lp1715
I0
ag3
(g13
g5
Ntp1716
Rp1717
(lp1718
I5667
aI593000000
abaS'/base_link'
p1719
abag3
(g18
g5
Ntp1720
Rp1721
(lp1722
g3
(g22
g5
Ntp1723
Rp1724
(lp1725
F0.6339505777234711
aF-0.19169226123094943
aF0.5505890253167226
abag3
(g26
g5
Ntp1726
Rp1727
(lp1728
F-0.0693451331838784
aF-0.24119533443302604
aF-0.023236192914444218
aF0.9677169743733411
abababag3
(g4
g5
Ntp1729
Rp1730
(lp1731
g3
(g9
g5
Ntp1732
Rp1733
(lp1734
I0
ag3
(g13
g5
Ntp1735
Rp1736
(lp1737
I5668
aI87000000
abaS'/base_link'
p1738
abag3
(g18
g5
Ntp1739
Rp1740
(lp1741
g3
(g22
g5
Ntp1742
Rp1743
(lp1744
F0.6386871255351476
aF-0.18988690285393892
aF0.541740590619539
abag3
(g26
g5
Ntp1745
Rp1746
(lp1747
F-0.08119661268940914
aF-0.205980763730654
aF-0.018277034353232465
aF0.9750102487030345
abababag3
(g4
g5
Ntp1748
Rp1749
(lp1750
g3
(g9
g5
Ntp1751
Rp1752
(lp1753
I0
ag3
(g13
g5
Ntp1754
Rp1755
(lp1756
I5668
aI560000000
abaS'/base_link'
p1757
abag3
(g18
g5
Ntp1758
Rp1759
(lp1760
g3
(g22
g5
Ntp1761
Rp1762
(lp1763
F0.6419394988476224
aF-0.18984486374433593
aF0.5321065996799841
abag3
(g26
g5
Ntp1764
Rp1765
(lp1766
F-0.09314966098447013
aF-0.1706200515255439
aF-0.015164758478421327
aF0.980806794825663
abababag3
(g4
g5
Ntp1767
Rp1768
(lp1769
g3
(g9
g5
Ntp1770
Rp1771
(lp1772
I0
ag3
(g13
g5
Ntp1773
Rp1774
(lp1775
I5668
aI996000000
abaS'/base_link'
p1776
abag3
(g18
g5
Ntp1777
Rp1778
(lp1779
g3
(g22
g5
Ntp1780
Rp1781
(lp1782
F0.6447115897410842
aF-0.19503549879315574
aF0.5240520575543933
abag3
(g26
g5
Ntp1783
Rp1784
(lp1785
F-0.09731430977808635
aF-0.13793060990965286
aF-0.031021082778913623
aF0.985161288513505
abababas.